Component: ARM Compiler 5.06 update 6 (build 750) Tool: armlink [4d35ed]

==============================================================================

Section Cross References

    arduino.o(.text) refers to gpio.o(.text) for GPIO_begin
    arduino.o(.text) refers to pwm.o(.text) for PWM_Init
    arduino.o(.text) refers to adc.o(.text) for Get_ADC
    arduino.o(.text) refers to delay.o(.text) for millis
    arduino.o(.text) refers to dadd.o(.text) for __aeabi_dsub
    arduino.o(.text) refers to dmul.o(.text) for __aeabi_dmul
    arduino.o(.text) refers to ddiv.o(.text) for __aeabi_ddiv
    arduino.o(.text) refers to gpio.o(.constdata) for PIN_MAP
    dtostrf.o(.text) refers to printfa.o(i.__0sprintf) for __2sprintf
    print.o(.text) refers to uldiv.o(.text) for __aeabi_uldivmod
    print.o(.text) refers to cdrcmple.o(.text) for __aeabi_cdrcmple
    print.o(.text) refers to cdcmple.o(.text) for __aeabi_cdcmple
    print.o(.text) refers to ddiv.o(.text) for __aeabi_ddiv
    print.o(.text) refers to dadd.o(.text) for __aeabi_dadd
    print.o(.text) refers to dfixl.o(.text) for __aeabi_d2lz
    print.o(.text) refers to dfltl.o(.text) for __aeabi_l2d
    print.o(.text) refers to dmul.o(.text) for __aeabi_dmul
    print.o(.text) refers to dfixi.o(.text) for __aeabi_d2iz
    print.o(.text) refers to dflti.o(.text) for __aeabi_i2d
    print.o(.text) refers to printfa.o(i.__0vsprintf) for __c89vsprintf
    print.o(.ARM.exidx) refers to print.o(.text) for .text
    hardwareserial.o(.text) refers to usart.o(.text) for usart_init
    hardwareserial.o(.text) refers to stm32f10x_usart.o(.text) for USART_Cmd
    hardwareserial.o(.text) refers to print.o(.constdata__ZTV5Print) for vtable for Print
    hardwareserial.o(.text) refers to hardwareserial.o(.constdata__ZTV6Stream) for vtable for Stream
    hardwareserial.o(.text) refers to hardwareserial.o(.constdata__ZTV14HardwareSerial) for vtable for HardwareSerial
    hardwareserial.o(.text) refers to usart.o(.data) for _rx_buffer_head
    hardwareserial.o(.text) refers to usart.o(.bss) for _rx_buffer
    hardwareserial.o(.text) refers to hardwareserial.o(.bss) for Serial
    hardwareserial.o(.ARM.exidx) refers to hardwareserial.o(.text) for .text
    hardwareserial.o(.init_array) refers to hardwareserial.o(.text) for __sti___18_HardwareSerial_cpp_cfa1b6a6
    hardwareserial.o(.init_array) refers to cpp_init.o(.text) for __cpp_initialize__aeabi_
    stream.o(.text) refers to delay.o(.text) for millis
    stream.o(.text) refers to strlen.o(.text) for strlen
    stream.o(.text) refers to f2d.o(.text) for __aeabi_f2d
    stream.o(.text) refers to dmul.o(.text) for __aeabi_dmul
    stream.o(.text) refers to d2f.o(.text) for __aeabi_d2f
    stream.o(.text) refers to fflti.o(.text) for __aeabi_i2f
    stream.o(.text) refers to fmul.o(.text) for __aeabi_fmul
    stream.o(.text) refers to wstring.o(.text) for String::String(const char*)
    stream.o(.text) refers to stream.o(i._ZN6StringpLEc) for String::operator +=(char)
    stream.o(.ARM.exidx) refers to stream.o(.text) for .text
    wstring.o(.text) refers to mallocr.o(i.__free$realloc) for free
    wstring.o(.text) refers to mallocr.o(i.realloc) for realloc
    wstring.o(.text) refers to strcpy.o(.text) for strcpy
    wstring.o(.text) refers to strlen.o(.text) for strlen
    wstring.o(.text) refers to itoa.o(.text) for itoa
    wstring.o(.text) refers to f2d.o(.text) for __aeabi_f2d
    wstring.o(.text) refers to dtostrf.o(.text) for dtostrf
    wstring.o(.text) refers to wstring.o(i._ZN6String4initEv) for String::init()
    wstring.o(.text) refers to strcmp.o(.text) for strcmp
    wstring.o(.text) refers to tolower.o(.text) for tolower
    wstring.o(.text) refers to strncmp.o(.text) for strncmp
    wstring.o(.text) refers to strncpy.o(.text) for strncpy
    wstring.o(.text) refers to strchr.o(.text) for strchr
    wstring.o(.text) refers to wstring.o(i._ZSt6strstrPcPKc) for std::strstr(char*, const char*)
    wstring.o(.text) refers to strrchr.o(.text) for strrchr
    wstring.o(.text) refers to memmovea.o(.text) for __aeabi_memcpy
    wstring.o(.text) refers to wstring.o(.data) for dummy_writable_char
    wstring.o(.text) refers to toupper.o(.text) for toupper
    wstring.o(.text) refers to wstring.o(i.isspace) for isspace
    wstring.o(.text) refers to atol.o(.text) for atol
    wstring.o(.text) refers to atof.o(i.atof) for atof
    wstring.o(.text) refers to d2f.o(.text) for __aeabi_d2f
    wstring.o(.ARM.exidx) refers to wstring.o(.text) for .text
    wire.o(.text) refers to delay.o(.text) for delay_us
    wire.o(.text) refers to arduino.o(.text) for digitalWrite
    wire.o(.text) refers to aeabi_atexit.o(.text) for __aeabi_atexit
    wire.o(.text) refers to wirebase.o(.constdata__ZTV8WireBase) for vtable for WireBase
    wire.o(.text) refers to wire.o(.constdata__ZTV7TwoWire) for vtable for TwoWire
    wire.o(.text) refers to wire.o(.bss) for Wire
    wire.o(.ARM.exidx) refers to wire.o(.text) for .text
    wire.o(.init_array) refers to wire.o(.text) for __sti___8_Wire_cpp_928ee5ff
    wire.o(.init_array) refers to cpp_init.o(.text) for __cpp_initialize__aeabi_
    wirebase.o(.ARM.exidx) refers to wirebase.o(.text) for .text
    spi.o(.text) refers to stm32f10x_spi.o(.text) for SPI_Cmd
    spi.o(.text) refers to stm32f10x_rcc.o(.text) for RCC_APB2PeriphClockCmd
    spi.o(.text) refers to stm32f10x_gpio.o(.text) for GPIO_Init
    spi.o(.text) refers to spi.o(.bss) for SPI
    spi.o(.ARM.exidx) refers to spi.o(.text) for .text
    spi.o(.init_array) refers to spi.o(.text) for __sti___7_SPI_cpp_ce5662b4
    spi.o(.init_array) refers to cpp_init.o(.text) for __cpp_initialize__aeabi_
    lapi.o(.text) refers to ldo.o(.text) for luaD_growstack
    lapi.o(.text) refers to lgc.o(.text) for luaC_barrier_
    lapi.o(.text) refers to lvm.o(.text) for luaV_tonumber_
    lapi.o(.text) refers to lobject.o(.text) for luaO_arith
    lapi.o(.text) refers to lobject.o(.constdata) for luaO_nilobject_
    lapi.o(.text) refers to lapi.o(.constdata) for version
    lapi.o(.text) refers to ltm.o(.constdata) for luaT_typenames_
    lapi.o(.text) refers to ltable.o(.text) for luaH_getn
    lapi.o(.text) refers to lstring.o(.text) for luaS_new
    lapi.o(.text) refers to lfunc.o(.text) for luaF_newCclosure
    lapi.o(.text) refers to ltm.o(.text) for luaT_gettm
    lapi.o(.text) refers to lzio.o(.text) for luaZ_init
    lapi.o(.text) refers to ldump.o(.text) for luaU_dump
    lapi.o(.text) refers to lstate.o(.text) for luaE_setdebt
    lapi.o(.text) refers to ldebug.o(.text) for luaG_errormsg
    lauxlib.o(.text) refers to lapi.o(.text) for lua_type
    lauxlib.o(.text) refers to ldebug.o(.text) for lua_getinfo
    lauxlib.o(.text) refers to strncmp.o(.text) for strncmp
    lauxlib.o(.text) refers to strcmp.o(.text) for strcmp
    lauxlib.o(.text) refers to errno.o(i.__aeabi_errno_addr) for __aeabi_errno_addr
    lauxlib.o(.text) refers to strerror.o(.text) for strerror
    lauxlib.o(.text) refers to strlen.o(.text) for strlen
    lauxlib.o(.text) refers to memmovea.o(.text) for __aeabi_memcpy
    lauxlib.o(.text) refers to fread.o(i.fread) for fread
    lauxlib.o(.text) refers to getc.o(i.getc) for getc
    lauxlib.o(.text) refers to stdin.o(.data) for __stdin
    lauxlib.o(.text) refers to f2d.o(.text) for __aeabi_f2d
    lauxlib.o(.text) refers to strstr.o(.text) for strstr
    lauxlib.o(.text) refers to mallocr.o(i.__free$realloc) for free
    lauxlib.o(.text) refers to mallocr.o(i.realloc) for realloc
    lauxlib.o(.text) refers to printfa.o(i.__0fprintf) for __2fprintf
    lauxlib.o(.text) refers to lstate.o(.text) for lua_newstate
    lauxlib.o(.text) refers to cfcmple.o(.text) for __aeabi_cfcmpeq
    lauxlib.o(.text) refers to stderr.o(.data) for __stderr
    lbaselib.o(.text) refers to lapi.o(.text) for lua_gettop
    lbaselib.o(.text) refers to lauxlib.o(.text) for luaL_error
    lbaselib.o(.text) refers to lua_call.o(.text) for Serial_print
    lbaselib.o(.text) refers to strspn.o(.text) for strspn
    lbaselib.o(.text) refers to ctype_o.o(.text) for __rt_ctype_table
    lbaselib.o(.text) refers to toupper.o(.text) for toupper
    lbaselib.o(.text) refers to fflti.o(.text) for __aeabi_i2f
    lbaselib.o(.text) refers to fdiv.o(.text) for __aeabi_fdiv
    lbaselib.o(.text) refers to fadd.o(.text) for __aeabi_fadd
    lbaselib.o(.text) refers to stdout.o(.data) for __stdout
    lbaselib.o(.text) refers to lbaselib.o(.constdata) for opts
    lbaselib.o(.constdata) refers to lbaselib.o(.conststring) for .conststring
    lbaselib.o(.constdata) refers to lbaselib.o(.text) for luaB_assert
    lbitlib.o(.text) refers to lauxlib.o(.text) for luaL_error
    lcode.o(.text) refers to llex.o(.text) for luaX_syntaxerror
    lcode.o(.text) refers to lmem.o(.text) for luaM_growaux_
    lcode.o(.text) refers to lopcodes.o(.constdata) for luaP_opmodes
    lcode.o(.text) refers to ltable.o(.text) for luaH_set
    lcode.o(.text) refers to lvm.o(.text) for luaV_equalobj
    lcode.o(.text) refers to lgc.o(.text) for luaC_barrier_
    lcode.o(.text) refers to fflti.o(.text) for __aeabi_i2f
    lcode.o(.text) refers to cfcmple.o(.text) for __aeabi_cfcmpeq
    lcode.o(.text) refers to lobject.o(.text) for luaO_arith
    lcorolib.o(.text) refers to lapi.o(.text) for lua_tothread
    lcorolib.o(.text) refers to lauxlib.o(.text) for luaL_argerror
    lcorolib.o(.text) refers to ldo.o(.text) for lua_resume
    lcorolib.o(.text) refers to lstate.o(.text) for lua_newthread
    lcorolib.o(.text) refers to ldebug.o(.text) for lua_getstack
    lcorolib.o(.text) refers to lcorolib.o(.constdata) for co_funcs
    lcorolib.o(.constdata) refers to lcorolib.o(.conststring) for .conststring
    lcorolib.o(.constdata) refers to lcorolib.o(.text) for luaB_cocreate
    ldblib.o(.text) refers to lapi.o(.text) for lua_checkstack
    ldblib.o(.text) refers to lauxlib.o(.text) for luaL_error
    ldblib.o(.text) refers to ldebug.o(.text) for lua_getstack
    ldblib.o(.text) refers to strchr.o(.text) for strchr
    ldblib.o(.text) refers to printfa.o(i.__0fprintf) for __2fprintf
    ldblib.o(.text) refers to fgets.o(i.fgets) for fgets
    ldblib.o(.text) refers to strcmp.o(.text) for strcmp
    ldblib.o(.text) refers to strlen.o(.text) for strlen
    ldblib.o(.text) refers to ldblib.o(.constdata) for HOOKKEY
    ldblib.o(.text) refers to stderr.o(.data) for __stderr
    ldblib.o(.text) refers to stdin.o(.data) for __stdin
    ldblib.o(.constdata) refers to ldblib.o(.conststring) for .conststring
    ldblib.o(.constdata) refers to ldblib.o(.text) for db_debug
    ldebug.o(.text) refers to lfunc.o(.text) for luaF_getlocalname
    ldebug.o(.text) refers to lobject.o(.text) for luaO_chunkid
    ldebug.o(.text) refers to ltable.o(.text) for luaH_new
    ldebug.o(.text) refers to lopcodes.o(.constdata) for luaP_opmodes
    ldebug.o(.text) refers to strcmp.o(.text) for strcmp
    ldebug.o(.text) refers to strchr.o(.text) for strchr
    ldebug.o(.text) refers to ldo.o(.text) for luaD_callnoyield
    ldebug.o(.text) refers to lvm.o(.text) for luaV_tonumber_
    ldebug.o(.text) refers to ltm.o(.constdata) for luaT_typenames_
    ldo.o(.text) refers to lstring.o(.text) for luaS_newlstr
    ldo.o(.text) refers to setjmp.o(.text) for longjmp
    ldo.o(.text) refers to lmem.o(.text) for luaM_toobig
    ldo.o(.text) refers to ldebug.o(.text) for luaG_runerror
    ldo.o(.text) refers to lstate.o(.text) for luaE_freeCI
    ldo.o(.text) refers to ltm.o(.text) for luaT_gettmbyobj
    ldo.o(.text) refers to lgc.o(.text) for luaC_step
    ldo.o(.text) refers to lvm.o(.text) for luaV_execute
    ldo.o(.text) refers to lobject.o(.constdata) for luaO_nilobject_
    ldo.o(.text) refers to lfunc.o(.text) for luaF_close
    ldo.o(.text) refers to strchr.o(.text) for strchr
    ldo.o(.text) refers to lobject.o(.text) for luaO_pushfstring
    ldo.o(.text) refers to lzio.o(.text) for luaZ_fill
    ldo.o(.text) refers to lundump.o(.text) for luaU_undump
    ldo.o(.text) refers to lparser.o(.text) for luaY_parser
    lfunc.o(.text) refers to lgc.o(.text) for luaC_newobj
    lfunc.o(.text) refers to lmem.o(.text) for luaM_realloc_
    lgc.o(.text) refers to lmem.o(.text) for luaM_realloc_
    lgc.o(.text) refers to ltm.o(.text) for luaT_gettm
    lgc.o(.text) refers to strchr.o(.text) for strchr
    lgc.o(.text) refers to ldo.o(.text) for luaD_shrinkstack
    lgc.o(.text) refers to lfunc.o(.text) for luaF_freeproto
    lgc.o(.text) refers to ltable.o(.text) for luaH_free
    lgc.o(.text) refers to lstate.o(.text) for luaE_freethread
    lgc.o(.text) refers to lstring.o(.text) for luaS_remove
    lgc.o(.text) refers to lobject.o(.text) for luaO_pushfstring
    linit.o(.text) refers to lauxlib.o(.text) for luaL_requiref
    linit.o(.text) refers to lapi.o(.text) for lua_settop
    linit.o(.text) refers to linit.o(.constdata) for loadedlibs
    linit.o(.constdata) refers to linit.o(.conststring) for .conststring
    linit.o(.constdata) refers to lbaselib.o(.text) for luaopen_base
    linit.o(.constdata) refers to loadlib.o(.text) for luaopen_package
    linit.o(.constdata) refers to lcorolib.o(.text) for luaopen_coroutine
    linit.o(.constdata) refers to ltablib.o(.text) for luaopen_table
    linit.o(.constdata) refers to liolib.o(.text) for luaopen_io
    linit.o(.constdata) refers to loslib.o(.text) for luaopen_os
    linit.o(.constdata) refers to lstrlib.o(.text) for luaopen_string
    linit.o(.constdata) refers to lmathlib.o(.text) for luaopen_math
    linit.o(.constdata) refers to lutf8lib.o(.text) for luaopen_utf8
    linit.o(.constdata) refers to ldblib.o(.text) for luaopen_debug
    liolib.o(.text) refers to lauxlib.o(.text) for luaL_checkany
    liolib.o(.text) refers to lapi.o(.text) for lua_pushnil
    liolib.o(.text) refers to errno.o(i.__aeabi_errno_addr) for __aeabi_errno_addr
    liolib.o(.text) refers to strerror.o(.text) for strerror
    liolib.o(.text) refers to strchr.o(.text) for strchr
    liolib.o(.text) refers to strspn.o(.text) for strspn
    liolib.o(.text) refers to strlen.o(.text) for strlen
    liolib.o(.text) refers to fread.o(i.fread) for fread
    liolib.o(.text) refers to getc.o(i.getc) for getc
    liolib.o(.text) refers to ctype_o.o(.text) for __rt_ctype_table
    liolib.o(.text) refers to localeconv.o(.text) for localeconv
    liolib.o(.text) refers to fgetc_u.o(.text) for ungetc
    liolib.o(.text) refers to printfa.o(i.__0fprintf) for __2fprintf
    liolib.o(.text) refers to f2d.o(.text) for __aeabi_f2d
    liolib.o(.text) refers to fwrite.o(i.fwrite) for fwrite
    liolib.o(.text) refers to liolib.o(.constdata) for modenames
    liolib.o(.text) refers to stdin.o(.data) for __stdin
    liolib.o(.text) refers to stdout.o(.data) for __stdout
    liolib.o(.text) refers to stderr.o(.data) for __stderr
    liolib.o(.constdata) refers to liolib.o(.conststring) for .conststring
    liolib.o(.constdata) refers to liolib.o(.text) for io_close
    llex.o(.text) refers to lobject.o(.text) for luaO_pushfstring
    llex.o(.text) refers to ldebug.o(.text) for luaG_addinfo
    llex.o(.text) refers to ldo.o(.text) for luaD_throw
    llex.o(.text) refers to lmem.o(.text) for luaM_realloc_
    llex.o(.text) refers to lstring.o(.text) for luaS_newlstr
    llex.o(.text) refers to lgc.o(.text) for luaC_fix
    llex.o(.text) refers to ltable.o(.text) for luaH_set
    llex.o(.text) refers to lzio.o(.text) for luaZ_fill
    llex.o(.text) refers to localeconv.o(.text) for localeconv
    llex.o(.text) refers to llex.o(.constdata) for luaX_tokens
    llex.o(.text) refers to lctype.o(.constdata) for luai_ctype_
    llex.o(.constdata) refers to llex.o(.conststring) for .conststring
    lmathlib.o(.text) refers to lapi.o(.text) for lua_isinteger
    lmathlib.o(.text) refers to lauxlib.o(.text) for luaL_checknumber
    lmathlib.o(.text) refers to sinf.o(i.sinf) for sinf
    lmathlib.o(.text) refers to cosf.o(i.cosf) for cosf
    lmathlib.o(.text) refers to tanf.o(i.tanf) for tanf
    lmathlib.o(.text) refers to asinf.o(i.asinf) for asinf
    lmathlib.o(.text) refers to acosf.o(i.acosf) for acosf
    lmathlib.o(.text) refers to atan2f.o(i.atan2f) for atan2f
    lmathlib.o(.text) refers to cfrcmple.o(.text) for __aeabi_cfrcmple
    lmathlib.o(.text) refers to cfcmple.o(.text) for __aeabi_cfcmple
    lmathlib.o(.text) refers to ffixi.o(.text) for __aeabi_f2iz
    lmathlib.o(.text) refers to floorf.o(i.floorf) for floorf
    lmathlib.o(.text) refers to ceilf.o(i.ceilf) for ceilf
    lmathlib.o(.text) refers to fmodf.o(i.fmodf) for fmodf
    lmathlib.o(.text) refers to fadd.o(.text) for __aeabi_fsub
    lmathlib.o(.text) refers to sqrtf.o(i.sqrtf) for sqrtf
    lmathlib.o(.text) refers to logf.o(i.logf) for logf
    lmathlib.o(.text) refers to f2d.o(.text) for __aeabi_f2d
    lmathlib.o(.text) refers to cdcmple.o(.text) for __aeabi_cdcmpeq
    lmathlib.o(.text) refers to log2f.o(i.log2f) for log2f
    lmathlib.o(.text) refers to fflti.o(.text) for __aeabi_i2f
    lmathlib.o(.text) refers to log10f.o(i.log10f) for log10f
    lmathlib.o(.text) refers to fdiv.o(.text) for __aeabi_fdiv
    lmathlib.o(.text) refers to expf.o(i.expf) for expf
    lmathlib.o(.text) refers to fmul.o(.text) for __aeabi_fmul
    lmathlib.o(.text) refers to rand.o(.text) for rand
    lmathlib.o(.text) refers to dflti.o(.text) for __aeabi_i2d
    lmathlib.o(.text) refers to dmul.o(.text) for __aeabi_dmul
    lmathlib.o(.text) refers to d2f.o(.text) for __aeabi_d2f
    lmathlib.o(.text) refers to dadd.o(.text) for __aeabi_dadd
    lmathlib.o(.text) refers to dfixi.o(.text) for __aeabi_d2iz
    lmathlib.o(.text) refers to lmathlib.o(.constdata) for mathlib
    lmathlib.o(.constdata) refers to lmathlib.o(.conststring) for .conststring
    lmathlib.o(.constdata) refers to lmathlib.o(.text) for math_abs
    lmem.o(.text) refers to lgc.o(.text) for luaC_fullgc
    lmem.o(.text) refers to ldo.o(.text) for luaD_throw
    lmem.o(.text) refers to ldebug.o(.text) for luaG_runerror
    loadlib.o(.text) refers to lapi.o(.text) for lua_pushstring
    loadlib.o(.text) refers to lauxlib.o(.text) for luaL_len
    loadlib.o(.text) refers to strchr.o(.text) for strchr
    loadlib.o(.text) refers to strlen.o(.text) for strlen
    loadlib.o(.text) refers to loadlib.o(.constdata) for CLIBS
    loadlib.o(.text) refers to loadlib.o(.conststring) for .conststring
    loadlib.o(.constdata) refers to loadlib.o(.conststring) for .conststring
    loadlib.o(.constdata) refers to loadlib.o(.text) for ll_loadlib
    lobject.o(.text) refers to lvm.o(.text) for luaV_mod
    lobject.o(.text) refers to fadd.o(.text) for __aeabi_fadd
    lobject.o(.text) refers to fmul.o(.text) for __aeabi_fmul
    lobject.o(.text) refers to fdiv.o(.text) for __aeabi_fdiv
    lobject.o(.text) refers to powf.o(i.powf) for powf
    lobject.o(.text) refers to floorf.o(i.floorf) for floorf
    lobject.o(.text) refers to fmodf.o(i.fmodf) for fmodf
    lobject.o(.text) refers to cfcmple.o(.text) for __aeabi_cfcmple
    lobject.o(.text) refers to ltm.o(.text) for luaT_trybinTM
    lobject.o(.text) refers to strpbrk.o(.text) for strpbrk
    lobject.o(.text) refers to strtof.o(i.strtof) for strtof
    lobject.o(.text) refers to lobject.o(.constdata) for log_2
    lobject.o(.text) refers to lctype.o(.constdata) for luai_ctype_
    lobject.o(.text) refers to printfa.o(i.__0snprintf) for __2snprintf
    lobject.o(.text) refers to f2d.o(.text) for __aeabi_f2d
    lobject.o(.text) refers to strspn.o(.text) for strspn
    lobject.o(.text) refers to localeconv.o(.text) for localeconv
    lobject.o(.text) refers to lstring.o(.text) for luaS_newlstr
    lobject.o(.text) refers to ldo.o(.text) for luaD_inctop
    lobject.o(.text) refers to strchr.o(.text) for strchr
    lobject.o(.text) refers to strlen.o(.text) for strlen
    lobject.o(.text) refers to d2f.o(.text) for __aeabi_d2f
    lobject.o(.text) refers to ldebug.o(.text) for luaG_runerror
    lobject.o(.text) refers to memmovea.o(.text) for __aeabi_memcpy
    lopcodes.o(.constdata) refers to lopcodes.o(.conststring) for .conststring
    loslib.o(.text) refers to delay.o(.text) for millis
    loslib.o(.text) refers to lauxlib.o(.text) for luaL_checkinteger
    loslib.o(.text) refers to lapi.o(.text) for lua_pushboolean
    loslib.o(.text) refers to ffltui.o(.text) for __aeabi_ui2f
    loslib.o(.text) refers to fdiv.o(.text) for __aeabi_fdiv
    loslib.o(.text) refers to strchr.o(.text) for strchr
    loslib.o(.text) refers to localtime_w.o(.text) for localtime
    loslib.o(.text) refers to strcmp.o(.text) for strcmp
    loslib.o(.text) refers to strftime.o(.text) for strftime
    loslib.o(.text) refers to loslib.o(.constdata) for options
    loslib.o(.text) refers to mktime.o(.text) for mktime
    loslib.o(.text) refers to difftime.o(i.difftime) for difftime
    loslib.o(.text) refers to d2f.o(.text) for __aeabi_d2f
    loslib.o(.text) refers to lstate.o(.text) for lua_close
    loslib.o(.constdata) refers to loslib.o(.conststring) for .conststring
    loslib.o(.constdata) refers to loslib.o(.text) for os_clock
    lparser.o(.text) refers to llex.o(.text) for luaX_syntaxerror
    lparser.o(.text) refers to lobject.o(.text) for luaO_pushfstring
    lparser.o(.text) refers to lcode.o(.text) for luaK_stringK
    lparser.o(.text) refers to lmem.o(.text) for luaM_growaux_
    lparser.o(.text) refers to lgc.o(.text) for luaC_barrier_
    lparser.o(.text) refers to lstring.o(.text) for luaS_new
    lparser.o(.text) refers to lfunc.o(.text) for luaF_newproto
    lparser.o(.text) refers to lparser.o(.constdata) for priority
    lparser.o(.text) refers to ldo.o(.text) for luaD_inctop
    lparser.o(.text) refers to ltable.o(.text) for luaH_new
    lstate.o(.text) refers to lmem.o(.text) for luaM_realloc_
    lstate.o(.text) refers to lfunc.o(.text) for luaF_close
    lstate.o(.text) refers to lgc.o(.text) for luaC_freeallobjects
    lstate.o(.text) refers to ltable.o(.text) for luaH_new
    lstate.o(.text) refers to lstring.o(.text) for luaS_init
    lstate.o(.text) refers to ltm.o(.text) for luaT_init
    lstate.o(.text) refers to llex.o(.text) for luaX_init
    lstate.o(.text) refers to lapi.o(.text) for lua_version
    lstate.o(.text) refers to ldo.o(.text) for luaD_rawrunprotected
    lstate.o(.text) refers to loslib.o(.text) for time
    lstate.o(.text) refers to lobject.o(.constdata) for luaO_nilobject_
    lstring.o(.text) refers to memcmp.o(.text) for memcmp
    lstring.o(.text) refers to lmem.o(.text) for luaM_toobig
    lstring.o(.text) refers to lgc.o(.text) for luaC_newobj
    lstring.o(.text) refers to memmovea.o(.text) for __aeabi_memcpy
    lstring.o(.text) refers to strcmp.o(.text) for strcmp
    lstring.o(.text) refers to strlen.o(.text) for strlen
    lstring.o(.text) refers to lobject.o(.constdata) for luaO_nilobject_
    lstrlib.o(.text) refers to lauxlib.o(.text) for luaL_checklstring
    lstrlib.o(.text) refers to lapi.o(.text) for lua_pushinteger
    lstrlib.o(.text) refers to tolower.o(.text) for tolower
    lstrlib.o(.text) refers to toupper.o(.text) for toupper
    lstrlib.o(.text) refers to memmovea.o(.text) for __aeabi_memcpy
    lstrlib.o(.text) refers to ctype_o.o(.text) for __rt_ctype_table
    lstrlib.o(.text) refers to memcmp.o(.text) for memcmp
    lstrlib.o(.text) refers to memchr.o(.text) for memchr
    lstrlib.o(.text) refers to strpbrk.o(.text) for strpbrk
    lstrlib.o(.text) refers to strlen.o(.text) for strlen
    lstrlib.o(.text) refers to printfa.o(i.__0snprintf) for __2snprintf
    lstrlib.o(.text) refers to strchr.o(.text) for strchr
    lstrlib.o(.text) refers to strcpy.o(.text) for strcpy
    lstrlib.o(.text) refers to f2d.o(.text) for __aeabi_f2d
    lstrlib.o(.text) refers to lstrlib.o(.constdata) for nativeendian
    lstrlib.o(.text) refers to d2f.o(.text) for __aeabi_d2f
    lstrlib.o(.constdata) refers to lstrlib.o(.conststring) for .conststring
    lstrlib.o(.constdata) refers to lstrlib.o(.text) for str_byte
    ltable.o(.text) refers to frexpf.o(i.frexpf) for frexpf
    ltable.o(.text) refers to fmul.o(.text) for __aeabi_fmul
    ltable.o(.text) refers to cfrcmple.o(.text) for __aeabi_cfrcmple
    ltable.o(.text) refers to cfcmple.o(.text) for __aeabi_cfcmple
    ltable.o(.text) refers to ffixi.o(.text) for __aeabi_f2iz
    ltable.o(.text) refers to lstring.o(.text) for luaS_hashlongstr
    ltable.o(.text) refers to lvm.o(.text) for luaV_equalobj
    ltable.o(.text) refers to ldebug.o(.text) for luaG_runerror
    ltable.o(.text) refers to lobject.o(.text) for luaO_ceillog2
    ltable.o(.text) refers to lmem.o(.text) for luaM_toobig
    ltable.o(.text) refers to memmovea.o(.text) for __aeabi_memcpy4
    ltable.o(.text) refers to ltable.o(.constdata) for dummynode_
    ltable.o(.text) refers to lgc.o(.text) for luaC_barrierback_
    ltable.o(.text) refers to lobject.o(.constdata) for luaO_nilobject_
    ltablib.o(.text) refers to lapi.o(.text) for lua_pushstring
    ltablib.o(.text) refers to lauxlib.o(.text) for luaL_argerror
    ltablib.o(.text) refers to loslib.o(.text) for time
    ltablib.o(.text) refers to ltablib.o(.constdata) for tab_funcs
    ltablib.o(.constdata) refers to ltablib.o(.conststring) for .conststring
    ltablib.o(.constdata) refers to ltablib.o(.text) for tconcat
    ltm.o(.text) refers to lstring.o(.text) for luaS_new
    ltm.o(.text) refers to lgc.o(.text) for luaC_fix
    ltm.o(.text) refers to ltable.o(.text) for luaH_getshortstr
    ltm.o(.text) refers to ldo.o(.text) for luaD_call
    ltm.o(.text) refers to ldebug.o(.text) for luaG_concaterror
    ltm.o(.text) refers to lvm.o(.text) for luaV_tonumber_
    ltm.o(.text) refers to ltm.o(.constdata) for luaT_eventname
    ltm.o(.text) refers to lobject.o(.constdata) for luaO_nilobject_
    ltm.o(.constdata) refers to ltm.o(.conststring) for .conststring
    lundump.o(.text) refers to lobject.o(.text) for luaO_pushfstring
    lundump.o(.text) refers to ldo.o(.text) for luaD_throw
    lundump.o(.text) refers to lzio.o(.text) for luaZ_read
    lundump.o(.text) refers to lstring.o(.text) for luaS_newlstr
    lundump.o(.text) refers to lmem.o(.text) for luaM_toobig
    lundump.o(.text) refers to lfunc.o(.text) for luaF_newproto
    lundump.o(.text) refers to strlen.o(.text) for strlen
    lundump.o(.text) refers to memcmp.o(.text) for memcmp
    lundump.o(.text) refers to cfcmple.o(.text) for __aeabi_cfcmpeq
    lutf8lib.o(.text) refers to lauxlib.o(.text) for luaL_checklstring
    lutf8lib.o(.text) refers to lapi.o(.text) for lua_pushnil
    lutf8lib.o(.text) refers to lutf8lib.o(.constdata) for limits
    lutf8lib.o(.constdata) refers to lutf8lib.o(.conststring) for .conststring
    lutf8lib.o(.constdata) refers to lutf8lib.o(.text) for byteoffset
    lvm.o(.text) refers to fflti.o(.text) for __aeabi_i2f
    lvm.o(.text) refers to lobject.o(.text) for luaO_str2num
    lvm.o(.text) refers to floorf.o(i.floorf) for floorf
    lvm.o(.text) refers to cfcmple.o(.text) for __aeabi_cfcmpeq
    lvm.o(.text) refers to fadd.o(.text) for __aeabi_fadd
    lvm.o(.text) refers to cfrcmple.o(.text) for __aeabi_cfrcmple
    lvm.o(.text) refers to ffixi.o(.text) for __aeabi_f2iz
    lvm.o(.text) refers to ltm.o(.text) for luaT_gettmbyobj
    lvm.o(.text) refers to ldebug.o(.text) for luaG_typeerror
    lvm.o(.text) refers to ltable.o(.text) for luaH_get
    lvm.o(.text) refers to lgc.o(.text) for luaC_barrierback_
    lvm.o(.text) refers to strcoll.o(.text) for strcoll
    lvm.o(.text) refers to strlen.o(.text) for strlen
    lvm.o(.text) refers to lobject.o(.constdata) for luaO_nilobject_
    lvm.o(.text) refers to lstring.o(.text) for luaS_eqlngstr
    lvm.o(.text) refers to memmovea.o(.text) for __aeabi_memcpy
    lvm.o(.text) refers to lfunc.o(.text) for luaF_newLclosure
    lvm.o(.text) refers to fmul.o(.text) for __aeabi_fmul
    lvm.o(.text) refers to fdiv.o(.text) for __aeabi_fdiv
    lvm.o(.text) refers to fmodf.o(i.fmodf) for fmodf
    lvm.o(.text) refers to powf.o(i.powf) for powf
    lvm.o(.text) refers to ldo.o(.text) for luaD_precall
    lzio.o(.text) refers to memmovea.o(.text) for __aeabi_memcpy
    delay.o(.text) refers to delay.o(.data) for System_ms
    exti.o(.text) refers to gpio.o(.text) for Get_Pinx
    exti.o(.text) refers to stm32f10x_rcc.o(.text) for RCC_APB2PeriphClockCmd
    exti.o(.text) refers to stm32f10x_gpio.o(.text) for GPIO_EXTILineConfig
    exti.o(.text) refers to stm32f10x_exti.o(.text) for EXTI_Init
    exti.o(.text) refers to misc.o(.text) for NVIC_Init
    exti.o(.text) refers to exti.o(.data) for EXIT_func
    exti.o(.data) refers to arduino.o(.text) for null_func
    gpio.o(.text) refers to stm32f10x_rcc.o(.text) for RCC_APB2PeriphClockCmd
    gpio.o(.text) refers to stm32f10x_gpio.o(.text) for GPIO_Init
    gpio.o(.text) refers to gpio.o(.constdata) for PIN_MAP
    adc.o(.text) refers to arduino.o(.text) for pinMode
    adc.o(.text) refers to stm32f10x_rcc.o(.text) for RCC_AHBPeriphClockCmd
    adc.o(.text) refers to stm32f10x_dma.o(.text) for DMA_DeInit
    adc.o(.text) refers to stm32f10x_adc.o(.text) for ADC_Init
    adc.o(.text) refers to adc.o(.bss) for ADC_ConvertedValue
    adc.o(.text) refers to gpio.o(.constdata) for PIN_MAP
    pwm.o(.text) refers to stm32f10x_rcc.o(.text) for RCC_APB2PeriphClockCmd
    pwm.o(.text) refers to stm32f10x_tim.o(.text) for TIM_TimeBaseInit
    pwm.o(.text) refers to arduino.o(.text) for pinMode
    pwm.o(.text) refers to gpio.o(.constdata) for PIN_MAP
    usart.o(.text) refers to stm32f10x_rcc.o(.text) for RCC_APB2PeriphClockCmd
    usart.o(.text) refers to stm32f10x_gpio.o(.text) for GPIO_Init
    usart.o(.text) refers to misc.o(.text) for NVIC_Init
    usart.o(.text) refers to stm32f10x_usart.o(.text) for USART_Init
    usart.o(.text) refers to usart.o(.data) for USART_func
    usart.o(.text) refers to usart.o(.bss) for _rx_buffer
    usart.o(.text) refers to arduino.o(.text) for null_func
    usart.o(.data) refers to arduino.o(.text) for null_func
    time_exti.o(.text) refers to stm32f10x_rcc.o(.text) for RCC_APB2PeriphClockCmd
    time_exti.o(.text) refers to stm32f10x_tim.o(.text) for TIM_DeInit
    time_exti.o(.text) refers to misc.o(.text) for NVIC_PriorityGroupConfig
    time_exti.o(.text) refers to time_exti.o(.data) for TIM_func
    time_exti.o(.data) refers to arduino.o(.text) for null_func
    main.o(.text) refers to hardwareserial.o(.text) for HardwareSerial::read()
    main.o(.text) refers to main.o(.emb_text) for GenerateSystemReset()
    main.o(.text) refers to delay.o(.text) for Delay_Init
    main.o(.text) refers to adc.o(.text) for ADCx_Init
    main.o(.text) refers to print.o(.text) for Print::println(const char*)
    main.o(.text) refers to stream.o(.text) for Stream::setTimeout(unsigned long)
    main.o(.text) refers to lauxlib.o(.text) for luaL_newstate
    main.o(.text) refers to linit.o(.text) for luaL_openlibs
    main.o(.text) refers to lapi.o(.text) for lua_pushcclosure
    main.o(.text) refers to array_new.o(i._Znaj) for operator new[] (unsigned)
    main.o(.text) refers to wstring.o(.text) for String::getBytes(unsigned char*, unsigned, unsigned) const
    main.o(.text) refers to strlen.o(.text) for strlen
    main.o(.text) refers to array_del.o(i._ZdaPv) for operator delete[] (void*)
    main.o(.text) refers to main.o(.data) for LuaRunning
    main.o(.text) refers to hardwareserial.o(.bss) for Serial
    main.o(.text) refers to lua_call.o(.text) for Lua_millis(lua_State*)
    main.o(.ARM.exidx) refers to main.o(.text) for .text
    lua_call.o(.text) refers to print.o(.text) for Print::print(const char*)
    lua_call.o(.text) refers to delay.o(.text) for millis
    lua_call.o(.text) refers to ffltui.o(.text) for __aeabi_ui2f
    lua_call.o(.text) refers to lapi.o(.text) for lua_pushnumber
    lua_call.o(.text) refers to ffixui.o(.text) for __aeabi_f2uiz
    lua_call.o(.text) refers to ffixi.o(.text) for __aeabi_f2iz
    lua_call.o(.text) refers to wstring.o(.text) for String::String(const char*)
    lua_call.o(.text) refers to lua_call.o(i._ZNK6StringeqEPKc) for String::operator ==(const char*) const
    lua_call.o(.text) refers to arduino.o(.text) for pinMode
    lua_call.o(.text) refers to hardwareserial.o(.bss) for Serial
    lua_call.o(.text) refers to lua_call.o(.conststring) for .conststring
    lua_call.o(.ARM.exidx) refers to lua_call.o(.text) for .text
    stm32f10x_adc.o(.text) refers to stm32f10x_rcc.o(.text) for RCC_APB2PeriphResetCmd
    stm32f10x_gpio.o(.text) refers to stm32f10x_rcc.o(.text) for RCC_APB2PeriphResetCmd
    stm32f10x_rcc.o(.text) refers to stm32f10x_rcc.o(.data) for APBAHBPrescTable
    stm32f10x_spi.o(.text) refers to stm32f10x_rcc.o(.text) for RCC_APB2PeriphResetCmd
    stm32f10x_tim.o(.text) refers to stm32f10x_rcc.o(.text) for RCC_APB2PeriphResetCmd
    stm32f10x_usart.o(.text) refers to stm32f10x_rcc.o(.text) for RCC_APB2PeriphResetCmd
    startup_stm32f10x_hd.o(RESET) refers to startup_stm32f10x_hd.o(STACK) for __initial_sp
    startup_stm32f10x_hd.o(RESET) refers to startup_stm32f10x_hd.o(.text) for Reset_Handler
    startup_stm32f10x_hd.o(RESET) refers to delay.o(.text) for SysTick_Handler
    startup_stm32f10x_hd.o(RESET) refers to exti.o(.text) for EXTI0_IRQHandler
    startup_stm32f10x_hd.o(RESET) refers to time_exti.o(.text) for TIM1_UP_IRQHandler
    startup_stm32f10x_hd.o(RESET) refers to usart.o(.text) for USART1_IRQHandler
    startup_stm32f10x_hd.o(.text) refers to system_stm32f10x.o(.text) for SystemInit
    startup_stm32f10x_hd.o(.text) refers to entry.o(.ARM.Collect$$$$00000000) for __main
    system_stm32f10x.o(.text) refers to system_stm32f10x.o(.data) for SystemCoreClock
    array_del.o(i._ZdaPv) refers to delete.o(i._ZdlPv) for operator delete (void*)
    array_del.o(.ARM.exidx) refers to array_del.o(i._ZdaPv) for i._ZdaPv
    array_new.o(i._Znaj) refers to new.o(i._Znwj) for operator new(unsigned)
    array_new.o(.ARM.exidx) refers to array_new.o(i._Znaj) for i._Znaj
    array_new.o(.ARM.exidx) refers to unwind_pr0.o(.text) for __aeabi_unwind_cpp_pr0
    array_new.o(.ARM.exidx) refers to array_new.o(.ARM.extab) for .extab._Znaj
    array_new.o(.ARM.extab) refers to arm_callunex_noexceptions.o(.text) for __cxa_call_unexpected
    array_new.o(.ARM.extab) refers to bad_alloc_dtor.o(.constdata__ZTISt9bad_alloc) for typeinfo for std::bad_alloc
    pure_virt.o(i.__cxa_pure_virtual) refers to cpp_signal.o(.text) for __rt_SIGPVFN
    pure_virt.o(.ARM.exidx) refers to pure_virt.o(i.__cxa_pure_virtual) for i.__cxa_pure_virtual
    lib_rtti_impl.o(i._ZN10__cxxabiv116__enum_type_infoD0Ev) refers to lib_rtti_impl.o(i._ZN10__cxxabiv116__enum_type_infoD1Ev) for __cxxabiv1::__enum_type_info::~__enum_type_info()
    lib_rtti_impl.o(i._ZN10__cxxabiv117__array_type_infoD0Ev) refers to lib_rtti_impl.o(i._ZN10__cxxabiv117__array_type_infoD1Ev) for __cxxabiv1::__array_type_info::~__array_type_info()
    lib_rtti_impl.o(i._ZN10__cxxabiv117__class_type_infoD0Ev) refers to lib_rtti_impl.o(i._ZN10__cxxabiv117__class_type_infoD1Ev) for __cxxabiv1::__class_type_info::~__class_type_info()
    lib_rtti_impl.o(i._ZN10__cxxabiv117__pbase_type_infoD0Ev) refers to lib_rtti_impl.o(i._ZN10__cxxabiv117__pbase_type_infoD1Ev) for __cxxabiv1::__pbase_type_info::~__pbase_type_info()
    lib_rtti_impl.o(i._ZN10__cxxabiv119__pointer_type_infoD0Ev) refers to lib_rtti_impl.o(i._ZN10__cxxabiv119__pointer_type_infoD1Ev) for __cxxabiv1::__pointer_type_info::~__pointer_type_info()
    lib_rtti_impl.o(i._ZN10__cxxabiv119__pointer_type_infoD1Ev) refers to lib_rtti_impl.o(i._ZN10__cxxabiv117__pbase_type_infoD1Ev) for __cxxabiv1::__pbase_type_info::~__pbase_type_info()
    lib_rtti_impl.o(i._ZN10__cxxabiv120__function_type_infoD0Ev) refers to lib_rtti_impl.o(i._ZN10__cxxabiv120__function_type_infoD1Ev) for __cxxabiv1::__function_type_info::~__function_type_info()
    lib_rtti_impl.o(i._ZN10__cxxabiv120__si_class_type_infoD0Ev) refers to lib_rtti_impl.o(i._ZN10__cxxabiv120__si_class_type_infoD1Ev) for __cxxabiv1::__si_class_type_info::~__si_class_type_info()
    lib_rtti_impl.o(i._ZN10__cxxabiv120__si_class_type_infoD1Ev) refers to lib_rtti_impl.o(i._ZN10__cxxabiv117__class_type_infoD1Ev) for __cxxabiv1::__class_type_info::~__class_type_info()
    lib_rtti_impl.o(i._ZN10__cxxabiv121__vmi_class_type_infoD0Ev) refers to lib_rtti_impl.o(i._ZN10__cxxabiv121__vmi_class_type_infoD1Ev) for __cxxabiv1::__vmi_class_type_info::~__vmi_class_type_info()
    lib_rtti_impl.o(i._ZN10__cxxabiv121__vmi_class_type_infoD1Ev) refers to lib_rtti_impl.o(i._ZN10__cxxabiv117__class_type_infoD1Ev) for __cxxabiv1::__class_type_info::~__class_type_info()
    lib_rtti_impl.o(i._ZN10__cxxabiv123__fundamental_type_infoD0Ev) refers to lib_rtti_impl.o(i._ZN10__cxxabiv123__fundamental_type_infoD1Ev) for __cxxabiv1::__fundamental_type_info::~__fundamental_type_info()
    lib_rtti_impl.o(i._ZN10__cxxabiv129__pointer_to_member_type_infoD0Ev) refers to lib_rtti_impl.o(i._ZN10__cxxabiv129__pointer_to_member_type_infoD1Ev) for __cxxabiv1::__pointer_to_member_type_info::~__pointer_to_member_type_info()
    lib_rtti_impl.o(i._ZN10__cxxabiv129__pointer_to_member_type_infoD1Ev) refers to lib_rtti_impl.o(i._ZN10__cxxabiv117__pbase_type_infoD1Ev) for __cxxabiv1::__pbase_type_info::~__pbase_type_info()
    lib_rtti_impl.o(.ARM.exidx) refers to lib_rtti_impl.o(i._ZN10__cxxabiv123__fundamental_type_infoD1Ev) for i._ZN10__cxxabiv123__fundamental_type_infoD1Ev
    lib_rtti_impl.o(.ARM.exidx) refers to lib_rtti_impl.o(i._ZN10__cxxabiv123__fundamental_type_infoD0Ev) for i._ZN10__cxxabiv123__fundamental_type_infoD0Ev
    lib_rtti_impl.o(.ARM.exidx) refers to lib_rtti_impl.o(i._ZN10__cxxabiv117__array_type_infoD1Ev) for i._ZN10__cxxabiv117__array_type_infoD1Ev
    lib_rtti_impl.o(.ARM.exidx) refers to lib_rtti_impl.o(i._ZN10__cxxabiv117__array_type_infoD0Ev) for i._ZN10__cxxabiv117__array_type_infoD0Ev
    lib_rtti_impl.o(.ARM.exidx) refers to lib_rtti_impl.o(i._ZN10__cxxabiv120__function_type_infoD1Ev) for i._ZN10__cxxabiv120__function_type_infoD1Ev
    lib_rtti_impl.o(.ARM.exidx) refers to lib_rtti_impl.o(i._ZN10__cxxabiv120__function_type_infoD0Ev) for i._ZN10__cxxabiv120__function_type_infoD0Ev
    lib_rtti_impl.o(.ARM.exidx) refers to lib_rtti_impl.o(i._ZN10__cxxabiv116__enum_type_infoD1Ev) for i._ZN10__cxxabiv116__enum_type_infoD1Ev
    lib_rtti_impl.o(.ARM.exidx) refers to lib_rtti_impl.o(i._ZN10__cxxabiv116__enum_type_infoD0Ev) for i._ZN10__cxxabiv116__enum_type_infoD0Ev
    lib_rtti_impl.o(.ARM.exidx) refers to lib_rtti_impl.o(i._ZN10__cxxabiv117__class_type_infoD1Ev) for i._ZN10__cxxabiv117__class_type_infoD1Ev
    lib_rtti_impl.o(.ARM.exidx) refers to lib_rtti_impl.o(i._ZN10__cxxabiv117__class_type_infoD0Ev) for i._ZN10__cxxabiv117__class_type_infoD0Ev
    lib_rtti_impl.o(.ARM.exidx) refers to lib_rtti_impl.o(i._ZN10__cxxabiv120__si_class_type_infoD1Ev) for i._ZN10__cxxabiv120__si_class_type_infoD1Ev
    lib_rtti_impl.o(.ARM.exidx) refers to lib_rtti_impl.o(i._ZN10__cxxabiv120__si_class_type_infoD0Ev) for i._ZN10__cxxabiv120__si_class_type_infoD0Ev
    lib_rtti_impl.o(.ARM.exidx) refers to lib_rtti_impl.o(i._ZN10__cxxabiv121__vmi_class_type_infoD1Ev) for i._ZN10__cxxabiv121__vmi_class_type_infoD1Ev
    lib_rtti_impl.o(.ARM.exidx) refers to lib_rtti_impl.o(i._ZN10__cxxabiv121__vmi_class_type_infoD0Ev) for i._ZN10__cxxabiv121__vmi_class_type_infoD0Ev
    lib_rtti_impl.o(.ARM.exidx) refers to lib_rtti_impl.o(i._ZN10__cxxabiv117__pbase_type_infoD1Ev) for i._ZN10__cxxabiv117__pbase_type_infoD1Ev
    lib_rtti_impl.o(.ARM.exidx) refers to lib_rtti_impl.o(i._ZN10__cxxabiv117__pbase_type_infoD0Ev) for i._ZN10__cxxabiv117__pbase_type_infoD0Ev
    lib_rtti_impl.o(.ARM.exidx) refers to lib_rtti_impl.o(i._ZN10__cxxabiv119__pointer_type_infoD1Ev) for i._ZN10__cxxabiv119__pointer_type_infoD1Ev
    lib_rtti_impl.o(.ARM.exidx) refers to lib_rtti_impl.o(i._ZN10__cxxabiv119__pointer_type_infoD0Ev) for i._ZN10__cxxabiv119__pointer_type_infoD0Ev
    lib_rtti_impl.o(.ARM.exidx) refers to lib_rtti_impl.o(i._ZN10__cxxabiv129__pointer_to_member_type_infoD1Ev) for i._ZN10__cxxabiv129__pointer_to_member_type_infoD1Ev
    lib_rtti_impl.o(.ARM.exidx) refers to lib_rtti_impl.o(i._ZN10__cxxabiv129__pointer_to_member_type_infoD0Ev) for i._ZN10__cxxabiv129__pointer_to_member_type_infoD0Ev
    acosf.o(i.__softfp_acosf) refers (Special) to iusefp.o(.text) for __I$use$fp
    acosf.o(i.__softfp_acosf) refers to acosf.o(i.acosf) for acosf
    acosf.o(i.acosf) refers (Special) to iusefp.o(.text) for __I$use$fp
    acosf.o(i.acosf) refers to fadd.o(.text) for __aeabi_frsub
    acosf.o(i.acosf) refers to fscalb.o(.text) for __ARM_scalbnf
    acosf.o(i.acosf) refers to sqrtf.o(i.sqrtf) for sqrtf
    acosf.o(i.acosf) refers to fmul.o(.text) for __aeabi_fmul
    acosf.o(i.acosf) refers to funder.o(i.__mathlib_flt_infnan) for __mathlib_flt_infnan
    acosf.o(i.acosf) refers to errno.o(i.__set_errno) for __set_errno
    acosf.o(i.acosf) refers to funder.o(i.__mathlib_flt_invalid) for __mathlib_flt_invalid
    acosf_x.o(i.____softfp_acosf$lsc) refers (Special) to iusefp.o(.text) for __I$use$fp
    acosf_x.o(i.____softfp_acosf$lsc) refers to acosf_x.o(i.__acosf$lsc) for __acosf$lsc
    acosf_x.o(i.__acosf$lsc) refers (Special) to iusefp.o(.text) for __I$use$fp
    acosf_x.o(i.__acosf$lsc) refers to fadd.o(.text) for __aeabi_frsub
    acosf_x.o(i.__acosf$lsc) refers to fscalb.o(.text) for __ARM_scalbnf
    acosf_x.o(i.__acosf$lsc) refers to sqrtf.o(i.sqrtf) for sqrtf
    acosf_x.o(i.__acosf$lsc) refers to fmul.o(.text) for __aeabi_fmul
    acosf_x.o(i.__acosf$lsc) refers to funder.o(i.__mathlib_flt_infnan) for __mathlib_flt_infnan
    acosf_x.o(i.__acosf$lsc) refers to errno.o(i.__set_errno) for __set_errno
    asinf.o(i.__softfp_asinf) refers (Special) to iusefp.o(.text) for __I$use$fp
    asinf.o(i.__softfp_asinf) refers to asinf.o(i.asinf) for asinf
    asinf.o(i.asinf) refers (Special) to iusefp.o(.text) for __I$use$fp
    asinf.o(i.asinf) refers to fadd.o(.text) for __aeabi_frsub
    asinf.o(i.asinf) refers to fscalb.o(.text) for __ARM_scalbnf
    asinf.o(i.asinf) refers to sqrtf.o(i.sqrtf) for sqrtf
    asinf.o(i.asinf) refers to fmul.o(.text) for __aeabi_fmul
    asinf.o(i.asinf) refers to fpclassifyf.o(i.__ARM_fpclassifyf) for __ARM_fpclassifyf
    asinf.o(i.asinf) refers to funder.o(i.__mathlib_flt_underflow) for __mathlib_flt_underflow
    asinf.o(i.asinf) refers to funder.o(i.__mathlib_flt_infnan) for __mathlib_flt_infnan
    asinf.o(i.asinf) refers to errno.o(i.__set_errno) for __set_errno
    asinf.o(i.asinf) refers to funder.o(i.__mathlib_flt_invalid) for __mathlib_flt_invalid
    asinf_x.o(i.____softfp_asinf$lsc) refers (Special) to iusefp.o(.text) for __I$use$fp
    asinf_x.o(i.____softfp_asinf$lsc) refers to asinf_x.o(i.__asinf$lsc) for __asinf$lsc
    asinf_x.o(i.__asinf$lsc) refers (Special) to iusefp.o(.text) for __I$use$fp
    asinf_x.o(i.__asinf$lsc) refers to fadd.o(.text) for __aeabi_frsub
    asinf_x.o(i.__asinf$lsc) refers to fscalb.o(.text) for __ARM_scalbnf
    asinf_x.o(i.__asinf$lsc) refers to sqrtf.o(i.sqrtf) for sqrtf
    asinf_x.o(i.__asinf$lsc) refers to fmul.o(.text) for __aeabi_fmul
    asinf_x.o(i.__asinf$lsc) refers to funder.o(i.__mathlib_flt_infnan) for __mathlib_flt_infnan
    asinf_x.o(i.__asinf$lsc) refers to errno.o(i.__set_errno) for __set_errno
    atan2f.o(i.__softfp_atan2f) refers (Special) to iusefp.o(.text) for __I$use$fp
    atan2f.o(i.__softfp_atan2f) refers to atan2f.o(i.atan2f) for atan2f
    atan2f.o(i.atan2f) refers (Special) to iusefp.o(.text) for __I$use$fp
    atan2f.o(i.atan2f) refers to fdiv.o(.text) for __aeabi_fdiv
    atan2f.o(i.atan2f) refers to fpclassifyf.o(i.__ARM_fpclassifyf) for __ARM_fpclassifyf
    atan2f.o(i.atan2f) refers to funder.o(i.__mathlib_flt_underflow) for __mathlib_flt_underflow
    atan2f.o(i.atan2f) refers to fadd.o(.text) for __aeabi_fsub
    atan2f.o(i.atan2f) refers to fmul.o(.text) for __aeabi_fmul
    atan2f.o(i.atan2f) refers to funder.o(i.__mathlib_flt_infnan2) for __mathlib_flt_infnan2
    atan2f_x.o(i.____softfp_atan2f$lsc) refers (Special) to iusefp.o(.text) for __I$use$fp
    atan2f_x.o(i.____softfp_atan2f$lsc) refers to atan2f_x.o(i.__atan2f$lsc) for __atan2f$lsc
    atan2f_x.o(i.__atan2f$lsc) refers (Special) to iusefp.o(.text) for __I$use$fp
    atan2f_x.o(i.__atan2f$lsc) refers to fdiv.o(.text) for __aeabi_fdiv
    atan2f_x.o(i.__atan2f$lsc) refers to fadd.o(.text) for __aeabi_fsub
    atan2f_x.o(i.__atan2f$lsc) refers to fmul.o(.text) for __aeabi_fmul
    atan2f_x.o(i.__atan2f$lsc) refers to funder.o(i.__mathlib_flt_infnan2) for __mathlib_flt_infnan2
    atan2f_x.o(i.__atan2f$lsc) refers to errno.o(i.__set_errno) for __set_errno
    atof.o(i.__softfp_atof) refers (Special) to iusefp.o(.text) for __I$use$fp
    atof.o(i.__softfp_atof) refers to errno.o(i.__read_errno) for __read_errno
    atof.o(i.__softfp_atof) refers to strtod.o(.text) for __strtod_int
    atof.o(i.__softfp_atof) refers to errno.o(i.__set_errno) for __set_errno
    atof.o(i.atof) refers (Special) to iusefp.o(.text) for __I$use$fp
    atof.o(i.atof) refers to errno.o(i.__read_errno) for __read_errno
    atof.o(i.atof) refers to strtod.o(.text) for __strtod_int
    atof.o(i.atof) refers to errno.o(i.__set_errno) for __set_errno
    ceilf.o(i.__softfp_ceilf) refers (Special) to iusefp.o(.text) for __I$use$fp
    ceilf.o(i.__softfp_ceilf) refers to fadd.o(.text) for __aeabi_fadd
    ceilf.o(i.ceilf) refers (Special) to iusefp.o(.text) for __I$use$fp
    ceilf.o(i.ceilf) refers to fadd.o(.text) for __aeabi_fadd
    cosf.o(i.__softfp_cosf) refers (Special) to iusefp.o(.text) for __I$use$fp
    cosf.o(i.__softfp_cosf) refers to cosf.o(i.cosf) for cosf
    cosf.o(i.cosf) refers (Special) to iusefp.o(.text) for __I$use$fp
    cosf.o(i.cosf) refers to fmul.o(.text) for __aeabi_fmul
    cosf.o(i.cosf) refers to frnd.o(.text) for _frnd
    cosf.o(i.cosf) refers to ffixi.o(.text) for __aeabi_f2iz
    cosf.o(i.cosf) refers to fadd.o(.text) for __aeabi_frsub
    cosf.o(i.cosf) refers to rredf.o(i.__mathlib_rredf2) for __mathlib_rredf2
    cosf.o(i.cosf) refers to errno.o(i.__set_errno) for __set_errno
    cosf.o(i.cosf) refers to funder.o(i.__mathlib_flt_invalid) for __mathlib_flt_invalid
    cosf.o(i.cosf) refers to funder.o(i.__mathlib_flt_infnan) for __mathlib_flt_infnan
    cosf_x.o(i.____softfp_cosf$lsc) refers (Special) to iusefp.o(.text) for __I$use$fp
    cosf_x.o(i.____softfp_cosf$lsc) refers to cosf_x.o(i.__cosf$lsc) for __cosf$lsc
    cosf_x.o(i.__cosf$lsc) refers (Special) to iusefp.o(.text) for __I$use$fp
    cosf_x.o(i.__cosf$lsc) refers to fmul.o(.text) for __aeabi_fmul
    cosf_x.o(i.__cosf$lsc) refers to frnd.o(.text) for _frnd
    cosf_x.o(i.__cosf$lsc) refers to ffixi.o(.text) for __aeabi_f2iz
    cosf_x.o(i.__cosf$lsc) refers to fadd.o(.text) for __aeabi_frsub
    cosf_x.o(i.__cosf$lsc) refers to rredf.o(i.__mathlib_rredf2) for __mathlib_rredf2
    cosf_x.o(i.__cosf$lsc) refers to errno.o(i.__set_errno) for __set_errno
    cosf_x.o(i.__cosf$lsc) refers to funder.o(i.__mathlib_flt_infnan) for __mathlib_flt_infnan
    difftime.o(i.__softfp_difftime) refers (Special) to iusefp.o(.text) for __I$use$fp
    difftime.o(i.__softfp_difftime) refers to dfltui.o(.text) for __aeabi_ui2d
    difftime.o(i.__softfp_difftime) refers to dadd.o(.text) for __aeabi_dsub
    difftime.o(i.difftime) refers (Special) to iusefp.o(.text) for __I$use$fp
    difftime.o(i.difftime) refers to dfltui.o(.text) for __aeabi_ui2d
    difftime.o(i.difftime) refers to dadd.o(.text) for __aeabi_dsub
    expf.o(i.__softfp_expf) refers (Special) to iusefp.o(.text) for __I$use$fp
    expf.o(i.__softfp_expf) refers to expf.o(i.expf) for expf
    expf.o(i.expf) refers (Special) to iusefp.o(.text) for __I$use$fp
    expf.o(i.expf) refers to fmul.o(.text) for __aeabi_fmul
    expf.o(i.expf) refers to frnd.o(.text) for _frnd
    expf.o(i.expf) refers to ffixi.o(.text) for __aeabi_f2iz
    expf.o(i.expf) refers to fadd.o(.text) for __aeabi_frsub
    expf.o(i.expf) refers to fscalb.o(.text) for __ARM_scalbnf
    expf.o(i.expf) refers to errno.o(i.__set_errno) for __set_errno
    expf.o(i.expf) refers to funder.o(i.__mathlib_flt_underflow) for __mathlib_flt_underflow
    expf.o(i.expf) refers to funder.o(i.__mathlib_flt_infnan) for __mathlib_flt_infnan
    expf.o(i.expf) refers to funder.o(i.__mathlib_flt_overflow) for __mathlib_flt_overflow
    expf.o(i.expf) refers to fpclassifyf.o(i.__ARM_fpclassifyf) for __ARM_fpclassifyf
    expf.o(i.expf) refers to expf.o(.constdata) for .constdata
    expf.o(.constdata) refers (Special) to iusefp.o(.text) for __I$use$fp
    expf_x.o(i.____softfp_expf$lsc) refers (Special) to iusefp.o(.text) for __I$use$fp
    expf_x.o(i.____softfp_expf$lsc) refers to expf_x.o(i.__expf$lsc) for __expf$lsc
    expf_x.o(i.__expf$lsc) refers (Special) to iusefp.o(.text) for __I$use$fp
    expf_x.o(i.__expf$lsc) refers to fmul.o(.text) for __aeabi_fmul
    expf_x.o(i.__expf$lsc) refers to frnd.o(.text) for _frnd
    expf_x.o(i.__expf$lsc) refers to ffixi.o(.text) for __aeabi_f2iz
    expf_x.o(i.__expf$lsc) refers to fadd.o(.text) for __aeabi_frsub
    expf_x.o(i.__expf$lsc) refers to fscalb.o(.text) for __ARM_scalbnf
    expf_x.o(i.__expf$lsc) refers to errno.o(i.__set_errno) for __set_errno
    expf_x.o(i.__expf$lsc) refers to funder.o(i.__mathlib_flt_infnan) for __mathlib_flt_infnan
    expf_x.o(i.__expf$lsc) refers to fpstat.o(.text) for __ieee_status
    expf_x.o(i.__expf$lsc) refers to expf_x.o(.constdata) for .constdata
    expf_x.o(.constdata) refers (Special) to iusefp.o(.text) for __I$use$fp
    floorf.o(i.__softfp_floorf) refers (Special) to iusefp.o(.text) for __I$use$fp
    floorf.o(i.__softfp_floorf) refers to fadd.o(.text) for __aeabi_fadd
    floorf.o(i.floorf) refers (Special) to iusefp.o(.text) for __I$use$fp
    floorf.o(i.floorf) refers to fadd.o(.text) for __aeabi_fadd
    fmodf.o(i.__softfp_fmodf) refers (Special) to iusefp.o(.text) for __I$use$fp
    fmodf.o(i.__softfp_fmodf) refers to frem.o(.text) for _frem
    fmodf.o(i.__softfp_fmodf) refers to fadd.o(.text) for __aeabi_frsub
    fmodf.o(i.__softfp_fmodf) refers to errno.o(i.__set_errno) for __set_errno
    fmodf.o(i.__softfp_fmodf) refers to funder.o(i.__mathlib_flt_invalid) for __mathlib_flt_invalid
    fmodf.o(i.fmodf) refers (Special) to iusefp.o(.text) for __I$use$fp
    fmodf.o(i.fmodf) refers to frem.o(.text) for _frem
    fmodf.o(i.fmodf) refers to fadd.o(.text) for __aeabi_frsub
    fmodf.o(i.fmodf) refers to errno.o(i.__set_errno) for __set_errno
    fmodf.o(i.fmodf) refers to funder.o(i.__mathlib_flt_invalid) for __mathlib_flt_invalid
    fmodf_x.o(i.____softfp_fmodf$lsc) refers (Special) to iusefp.o(.text) for __I$use$fp
    fmodf_x.o(i.____softfp_fmodf$lsc) refers to frem.o(.text) for _frem
    fmodf_x.o(i.____softfp_fmodf$lsc) refers to fadd.o(.text) for __aeabi_frsub
    fmodf_x.o(i.____softfp_fmodf$lsc) refers to errno.o(i.__set_errno) for __set_errno
    fmodf_x.o(i.__fmodf$lsc) refers (Special) to iusefp.o(.text) for __I$use$fp
    fmodf_x.o(i.__fmodf$lsc) refers to frem.o(.text) for _frem
    fmodf_x.o(i.__fmodf$lsc) refers to fadd.o(.text) for __aeabi_frsub
    fmodf_x.o(i.__fmodf$lsc) refers to errno.o(i.__set_errno) for __set_errno
    frexpf.o(i.__softfp_frexpf) refers (Special) to iusefp.o(.text) for __I$use$fp
    frexpf.o(i.__softfp_frexpf) refers to fscalb.o(.text) for __ARM_scalbnf
    frexpf.o(i.frexpf) refers (Special) to iusefp.o(.text) for __I$use$fp
    frexpf.o(i.frexpf) refers to fscalb.o(.text) for __ARM_scalbnf
    log10f.o(i.__softfp_log10f) refers (Special) to iusefp.o(.text) for __I$use$fp
    log10f.o(i.__softfp_log10f) refers to log10f.o(i.log10f) for log10f
    log10f.o(i.log10f) refers (Special) to iusefp.o(.text) for __I$use$fp
    log10f.o(i.log10f) refers to fadd.o(.text) for __aeabi_fadd
    log10f.o(i.log10f) refers to fdiv.o(.text) for __aeabi_fdiv
    log10f.o(i.log10f) refers to fmul.o(.text) for __aeabi_fmul
    log10f.o(i.log10f) refers to fflti.o(.text) for __aeabi_i2f
    log10f.o(i.log10f) refers to funder.o(i.__mathlib_flt_infnan) for __mathlib_flt_infnan
    log10f.o(i.log10f) refers to errno.o(i.__set_errno) for __set_errno
    log10f.o(i.log10f) refers to funder.o(i.__mathlib_flt_invalid) for __mathlib_flt_invalid
    log10f.o(i.log10f) refers to fscalb.o(.text) for __ARM_scalbnf
    log10f.o(i.log10f) refers to funder.o(i.__mathlib_flt_divzero) for __mathlib_flt_divzero
    log10f.o(i.log10f) refers to log10f.o(.constdata) for .constdata
    log10f.o(.constdata) refers (Special) to iusefp.o(.text) for __I$use$fp
    log10f_x.o(i.____softfp_log10f$lsc) refers (Special) to iusefp.o(.text) for __I$use$fp
    log10f_x.o(i.____softfp_log10f$lsc) refers to log10f_x.o(i.__log10f$lsc) for __log10f$lsc
    log10f_x.o(i.__log10f$lsc) refers (Special) to iusefp.o(.text) for __I$use$fp
    log10f_x.o(i.__log10f$lsc) refers to fadd.o(.text) for __aeabi_fadd
    log10f_x.o(i.__log10f$lsc) refers to fdiv.o(.text) for __aeabi_fdiv
    log10f_x.o(i.__log10f$lsc) refers to fmul.o(.text) for __aeabi_fmul
    log10f_x.o(i.__log10f$lsc) refers to fflti.o(.text) for __aeabi_i2f
    log10f_x.o(i.__log10f$lsc) refers to funder.o(i.__mathlib_flt_infnan) for __mathlib_flt_infnan
    log10f_x.o(i.__log10f$lsc) refers to errno.o(i.__set_errno) for __set_errno
    log10f_x.o(i.__log10f$lsc) refers to fscalb.o(.text) for __ARM_scalbnf
    log10f_x.o(i.__log10f$lsc) refers to log10f_x.o(.constdata) for .constdata
    log10f_x.o(.constdata) refers (Special) to iusefp.o(.text) for __I$use$fp
    log2f.o(i.__softfp_log2f) refers (Special) to iusefp.o(.text) for __I$use$fp
    log2f.o(i.__softfp_log2f) refers to log2f.o(i.log2f) for log2f
    log2f.o(i.log2f) refers (Special) to iusefp.o(.text) for __I$use$fp
    log2f.o(i.log2f) refers to fadd.o(.text) for __aeabi_fadd
    log2f.o(i.log2f) refers to fdiv.o(.text) for __aeabi_fdiv
    log2f.o(i.log2f) refers to fmul.o(.text) for __aeabi_fmul
    log2f.o(i.log2f) refers to fflti.o(.text) for __aeabi_i2f
    log2f.o(i.log2f) refers to funder.o(i.__mathlib_flt_infnan) for __mathlib_flt_infnan
    log2f.o(i.log2f) refers to errno.o(i.__set_errno) for __set_errno
    log2f.o(i.log2f) refers to funder.o(i.__mathlib_flt_invalid) for __mathlib_flt_invalid
    log2f.o(i.log2f) refers to fscalb.o(.text) for __ARM_scalbnf
    log2f.o(i.log2f) refers to funder.o(i.__mathlib_flt_divzero) for __mathlib_flt_divzero
    log2f.o(i.log2f) refers to log2f.o(.constdata) for .constdata
    log2f.o(.constdata) refers (Special) to iusefp.o(.text) for __I$use$fp
    log2f_x.o(i.____softfp_log2f$lsc) refers (Special) to iusefp.o(.text) for __I$use$fp
    log2f_x.o(i.____softfp_log2f$lsc) refers to log2f_x.o(i.__log2f$lsc) for __log2f$lsc
    log2f_x.o(i.__log2f$lsc) refers (Special) to iusefp.o(.text) for __I$use$fp
    log2f_x.o(i.__log2f$lsc) refers to fadd.o(.text) for __aeabi_fadd
    log2f_x.o(i.__log2f$lsc) refers to fdiv.o(.text) for __aeabi_fdiv
    log2f_x.o(i.__log2f$lsc) refers to fmul.o(.text) for __aeabi_fmul
    log2f_x.o(i.__log2f$lsc) refers to fflti.o(.text) for __aeabi_i2f
    log2f_x.o(i.__log2f$lsc) refers to funder.o(i.__mathlib_flt_infnan) for __mathlib_flt_infnan
    log2f_x.o(i.__log2f$lsc) refers to errno.o(i.__set_errno) for __set_errno
    log2f_x.o(i.__log2f$lsc) refers to fscalb.o(.text) for __ARM_scalbnf
    log2f_x.o(i.__log2f$lsc) refers to log2f_x.o(.constdata) for .constdata
    log2f_x.o(.constdata) refers (Special) to iusefp.o(.text) for __I$use$fp
    logf.o(i.__softfp_logf) refers (Special) to iusefp.o(.text) for __I$use$fp
    logf.o(i.__softfp_logf) refers to logf.o(i.logf) for logf
    logf.o(i.logf) refers (Special) to iusefp.o(.text) for __I$use$fp
    logf.o(i.logf) refers to fadd.o(.text) for __aeabi_fadd
    logf.o(i.logf) refers to fdiv.o(.text) for __aeabi_fdiv
    logf.o(i.logf) refers to fmul.o(.text) for __aeabi_fmul
    logf.o(i.logf) refers to fflti.o(.text) for __aeabi_i2f
    logf.o(i.logf) refers to fscalb.o(.text) for __ARM_scalbnf
    logf.o(i.logf) refers to funder.o(i.__mathlib_flt_infnan) for __mathlib_flt_infnan
    logf.o(i.logf) refers to errno.o(i.__set_errno) for __set_errno
    logf.o(i.logf) refers to funder.o(i.__mathlib_flt_invalid) for __mathlib_flt_invalid
    logf.o(i.logf) refers to funder.o(i.__mathlib_flt_divzero) for __mathlib_flt_divzero
    logf.o(i.logf) refers to logf.o(.constdata) for .constdata
    logf.o(.constdata) refers (Special) to iusefp.o(.text) for __I$use$fp
    logf_x.o(i.____softfp_logf$lsc) refers (Special) to iusefp.o(.text) for __I$use$fp
    logf_x.o(i.____softfp_logf$lsc) refers to logf_x.o(i.__logf$lsc) for __logf$lsc
    logf_x.o(i.__logf$lsc) refers (Special) to iusefp.o(.text) for __I$use$fp
    logf_x.o(i.__logf$lsc) refers to fadd.o(.text) for __aeabi_fadd
    logf_x.o(i.__logf$lsc) refers to fdiv.o(.text) for __aeabi_fdiv
    logf_x.o(i.__logf$lsc) refers to fmul.o(.text) for __aeabi_fmul
    logf_x.o(i.__logf$lsc) refers to fflti.o(.text) for __aeabi_i2f
    logf_x.o(i.__logf$lsc) refers to fscalb.o(.text) for __ARM_scalbnf
    logf_x.o(i.__logf$lsc) refers to funder.o(i.__mathlib_flt_infnan) for __mathlib_flt_infnan
    logf_x.o(i.__logf$lsc) refers to errno.o(i.__set_errno) for __set_errno
    logf_x.o(i.__logf$lsc) refers to logf_x.o(.constdata) for .constdata
    logf_x.o(.constdata) refers (Special) to iusefp.o(.text) for __I$use$fp
    powf.o(i.__softfp_powf) refers (Special) to iusefp.o(.text) for __I$use$fp
    powf.o(i.__softfp_powf) refers to powf.o(i.powf) for powf
    powf.o(i.powf) refers (Special) to iusefp.o(.text) for __I$use$fp
    powf.o(i.powf) refers to fflti.o(.text) for __aeabi_i2f
    powf.o(i.powf) refers to fscalb.o(.text) for __ARM_scalbnf
    powf.o(i.powf) refers to fadd.o(.text) for __aeabi_fadd
    powf.o(i.powf) refers to fdiv.o(.text) for __aeabi_fdiv
    powf.o(i.powf) refers to fmul.o(.text) for __aeabi_fmul
    powf.o(i.powf) refers to fpstat.o(.text) for __ieee_status
    powf.o(i.powf) refers to ffixir.o(.text) for _ffix_r
    powf.o(i.powf) refers to fpclassifyf.o(i.__ARM_fpclassifyf) for __ARM_fpclassifyf
    powf.o(i.powf) refers to funder.o(i.__mathlib_flt_underflow) for __mathlib_flt_underflow
    powf.o(i.powf) refers to errno.o(i.__set_errno) for __set_errno
    powf.o(i.powf) refers to funder.o(i.__mathlib_flt_overflow) for __mathlib_flt_overflow
    powf.o(i.powf) refers to funder.o(i.__mathlib_flt_invalid) for __mathlib_flt_invalid
    powf.o(i.powf) refers to powf.o(.constdata) for .constdata
    powf.o(i.powf) refers to funder.o(i.__mathlib_flt_infnan2) for __mathlib_flt_infnan2
    powf.o(i.powf) refers to funder.o(i.__mathlib_flt_divzero) for __mathlib_flt_divzero
    powf.o(.constdata) refers (Special) to iusefp.o(.text) for __I$use$fp
    powf_x.o(i.____softfp_powf$lsc) refers (Special) to iusefp.o(.text) for __I$use$fp
    powf_x.o(i.____softfp_powf$lsc) refers to powf_x.o(i.__powf$lsc) for __powf$lsc
    powf_x.o(i.__powf$lsc) refers (Special) to iusefp.o(.text) for __I$use$fp
    powf_x.o(i.__powf$lsc) refers to fflti.o(.text) for __aeabi_i2f
    powf_x.o(i.__powf$lsc) refers to fscalb.o(.text) for __ARM_scalbnf
    powf_x.o(i.__powf$lsc) refers to fadd.o(.text) for __aeabi_fadd
    powf_x.o(i.__powf$lsc) refers to fdiv.o(.text) for __aeabi_fdiv
    powf_x.o(i.__powf$lsc) refers to fmul.o(.text) for __aeabi_fmul
    powf_x.o(i.__powf$lsc) refers to fpstat.o(.text) for __ieee_status
    powf_x.o(i.__powf$lsc) refers to ffixir.o(.text) for _ffix_r
    powf_x.o(i.__powf$lsc) refers to errno.o(i.__set_errno) for __set_errno
    powf_x.o(i.__powf$lsc) refers to powf_x.o(.constdata) for .constdata
    powf_x.o(i.__powf$lsc) refers to funder.o(i.__mathlib_flt_infnan2) for __mathlib_flt_infnan2
    powf_x.o(.constdata) refers (Special) to iusefp.o(.text) for __I$use$fp
    sinf.o(i.__softfp_sinf) refers (Special) to iusefp.o(.text) for __I$use$fp
    sinf.o(i.__softfp_sinf) refers to sinf.o(i.sinf) for sinf
    sinf.o(i.sinf) refers (Special) to iusefp.o(.text) for __I$use$fp
    sinf.o(i.sinf) refers to fmul.o(.text) for __aeabi_fmul
    sinf.o(i.sinf) refers to frnd.o(.text) for _frnd
    sinf.o(i.sinf) refers to ffixi.o(.text) for __aeabi_f2iz
    sinf.o(i.sinf) refers to fadd.o(.text) for __aeabi_frsub
    sinf.o(i.sinf) refers to rredf.o(i.__mathlib_rredf2) for __mathlib_rredf2
    sinf.o(i.sinf) refers to fpclassifyf.o(i.__ARM_fpclassifyf) for __ARM_fpclassifyf
    sinf.o(i.sinf) refers to funder.o(i.__mathlib_flt_underflow) for __mathlib_flt_underflow
    sinf.o(i.sinf) refers to errno.o(i.__set_errno) for __set_errno
    sinf.o(i.sinf) refers to funder.o(i.__mathlib_flt_invalid) for __mathlib_flt_invalid
    sinf.o(i.sinf) refers to funder.o(i.__mathlib_flt_infnan) for __mathlib_flt_infnan
    sinf_x.o(i.____softfp_sinf$lsc) refers (Special) to iusefp.o(.text) for __I$use$fp
    sinf_x.o(i.____softfp_sinf$lsc) refers to sinf_x.o(i.__sinf$lsc) for __sinf$lsc
    sinf_x.o(i.__sinf$lsc) refers (Special) to iusefp.o(.text) for __I$use$fp
    sinf_x.o(i.__sinf$lsc) refers to fmul.o(.text) for __aeabi_fmul
    sinf_x.o(i.__sinf$lsc) refers to frnd.o(.text) for _frnd
    sinf_x.o(i.__sinf$lsc) refers to ffixi.o(.text) for __aeabi_f2iz
    sinf_x.o(i.__sinf$lsc) refers to fadd.o(.text) for __aeabi_frsub
    sinf_x.o(i.__sinf$lsc) refers to rredf.o(i.__mathlib_rredf2) for __mathlib_rredf2
    sinf_x.o(i.__sinf$lsc) refers to errno.o(i.__set_errno) for __set_errno
    sinf_x.o(i.__sinf$lsc) refers to funder.o(i.__mathlib_flt_infnan) for __mathlib_flt_infnan
    sqrtf.o(i.__softfp_sqrtf) refers (Special) to iusefp.o(.text) for __I$use$fp
    sqrtf.o(i.__softfp_sqrtf) refers to fsqrt.o(.text) for _fsqrt
    sqrtf.o(i.__softfp_sqrtf) refers to errno.o(i.__set_errno) for __set_errno
    sqrtf.o(i.sqrtf) refers (Special) to iusefp.o(.text) for __I$use$fp
    sqrtf.o(i.sqrtf) refers to fsqrt.o(.text) for _fsqrt
    sqrtf.o(i.sqrtf) refers to errno.o(i.__set_errno) for __set_errno
    sqrtf_x.o(i.____softfp_sqrtf$lsc) refers (Special) to iusefp.o(.text) for __I$use$fp
    sqrtf_x.o(i.____softfp_sqrtf$lsc) refers to errno.o(i.__set_errno) for __set_errno
    sqrtf_x.o(i.____softfp_sqrtf$lsc) refers to fsqrt.o(.text) for _fsqrt
    sqrtf_x.o(i.__sqrtf$lsc) refers (Special) to iusefp.o(.text) for __I$use$fp
    sqrtf_x.o(i.__sqrtf$lsc) refers to errno.o(i.__set_errno) for __set_errno
    sqrtf_x.o(i.__sqrtf$lsc) refers to fsqrt.o(.text) for _fsqrt
    strtof.o(i.__softfp_strtof) refers (Special) to iusefp.o(.text) for __I$use$fp
    strtof.o(i.__softfp_strtof) refers to strtof.o(.text) for __strtof_int
    strtof.o(i.strtof) refers (Special) to iusefp.o(.text) for __I$use$fp
    strtof.o(i.strtof) refers to strtof.o(.text) for __strtof_int
    tanf.o(i.__softfp_tanf) refers (Special) to iusefp.o(.text) for __I$use$fp
    tanf.o(i.__softfp_tanf) refers to tanf.o(i.tanf) for tanf
    tanf.o(i.tanf) refers (Special) to iusefp.o(.text) for __I$use$fp
    tanf.o(i.tanf) refers to fmul.o(.text) for __aeabi_fmul
    tanf.o(i.tanf) refers to frnd.o(.text) for _frnd
    tanf.o(i.tanf) refers to ffixi.o(.text) for __aeabi_f2iz
    tanf.o(i.tanf) refers to fadd.o(.text) for __aeabi_frsub
    tanf.o(i.tanf) refers to fdiv.o(.text) for __aeabi_fdiv
    tanf.o(i.tanf) refers to rredf.o(i.__mathlib_rredf2) for __mathlib_rredf2
    tanf.o(i.tanf) refers to fpclassifyf.o(i.__ARM_fpclassifyf) for __ARM_fpclassifyf
    tanf.o(i.tanf) refers to funder.o(i.__mathlib_flt_underflow) for __mathlib_flt_underflow
    tanf.o(i.tanf) refers to errno.o(i.__set_errno) for __set_errno
    tanf.o(i.tanf) refers to funder.o(i.__mathlib_flt_invalid) for __mathlib_flt_invalid
    tanf.o(i.tanf) refers to funder.o(i.__mathlib_flt_infnan) for __mathlib_flt_infnan
    tanf_x.o(i.____softfp_tanf$lsc) refers (Special) to iusefp.o(.text) for __I$use$fp
    tanf_x.o(i.____softfp_tanf$lsc) refers to tanf_x.o(i.__tanf$lsc) for __tanf$lsc
    tanf_x.o(i.__tanf$lsc) refers (Special) to iusefp.o(.text) for __I$use$fp
    tanf_x.o(i.__tanf$lsc) refers to fmul.o(.text) for __aeabi_fmul
    tanf_x.o(i.__tanf$lsc) refers to frnd.o(.text) for _frnd
    tanf_x.o(i.__tanf$lsc) refers to ffixi.o(.text) for __aeabi_f2iz
    tanf_x.o(i.__tanf$lsc) refers to fadd.o(.text) for __aeabi_frsub
    tanf_x.o(i.__tanf$lsc) refers to fdiv.o(.text) for __aeabi_fdiv
    tanf_x.o(i.__tanf$lsc) refers to rredf.o(i.__mathlib_rredf2) for __mathlib_rredf2
    tanf_x.o(i.__tanf$lsc) refers to errno.o(i.__set_errno) for __set_errno
    tanf_x.o(i.__tanf$lsc) refers to funder.o(i.__mathlib_flt_infnan) for __mathlib_flt_infnan
    entry.o(.ARM.Collect$$$$00000000) refers (Special) to entry10a.o(.ARM.Collect$$$$0000000D) for __rt_final_cpp
    entry.o(.ARM.Collect$$$$00000000) refers (Special) to entry11a.o(.ARM.Collect$$$$0000000F) for __rt_final_exit
    entry.o(.ARM.Collect$$$$00000000) refers (Special) to entry7b.o(.ARM.Collect$$$$00000008) for _main_clock
    entry.o(.ARM.Collect$$$$00000000) refers (Special) to entry8b.o(.ARM.Collect$$$$0000000A) for _main_cpp_init
    entry.o(.ARM.Collect$$$$00000000) refers (Special) to entry9a.o(.ARM.Collect$$$$0000000B) for _main_init
    entry.o(.ARM.Collect$$$$00000000) refers (Special) to entry5.o(.ARM.Collect$$$$00000004) for _main_scatterload
    entry.o(.ARM.Collect$$$$00000000) refers (Special) to entry2.o(.ARM.Collect$$$$00000001) for _main_stk
    fgetc_u.o(.text) refers (Special) to iusesemig.o(.text) for __I$use$semihosting$fgetc
    fgetc_u.o(.text) refers (Special) to semi.o(.text) for __semihosting_library_function
    fgetc_u.o(.text) refers to fgetc_u.o(.data) for .data
    fgetc_u.o(.data) refers (Special) to iusesemig.o(.text) for __I$use$semihosting$fgetc
    fgetc_u.o(.data) refers (Special) to semi.o(.text) for __semihosting_library_function
    fgetc_ub.o(.text) refers (Special) to iusesemig.o(.text) for __I$use$semihosting$fgetc
    fgetc_ub.o(.text) refers (Special) to semi.o(.text) for __semihosting_library_function
    fgetc_ub.o(.text) refers to fgetc_ub.o(.data) for .data
    fgetc_ub.o(.data) refers (Special) to iusesemig.o(.text) for __I$use$semihosting$fgetc
    fgetc_ub.o(.data) refers (Special) to semi.o(.text) for __semihosting_library_function
    fwrite.o(i.fwrite) refers to fputc.o(i.fputc) for fputc
    fgets.o(i.fgets) refers to fgetc_u.o(.text) for fgetc
    fread.o(i.fread) refers to fgetc_u.o(.text) for fgetc
    getc.o(i.getc) refers to fgetc_u.o(.text) for fgetc
    fwrite_e.o(.text) refers to fputc.o(i.fputc) for fputc
    uldiv.o(.text) refers to llushr.o(.text) for __aeabi_llsr
    uldiv.o(.text) refers to llshl.o(.text) for __aeabi_llsl
    ctype_o.o(.text) refers to ctype_o.o(.constdata) for .constdata
    ctype_o.o(.constdata) refers to ctype_o.o(.constdata) for __ctype_table
    isalnum_o.o(.text) refers to ctype_o.o(.text) for __rt_ctype_table
    isalpha_o.o(.text) refers to ctype_o.o(.text) for __rt_ctype_table
    isblank_o.o(.text) refers to ctype_o.o(.constdata) for __ctype_table
    iscntrl_o.o(.text) refers to ctype_o.o(.text) for __rt_ctype_table
    isdigit_o.o(.text) refers to ctype_o.o(.text) for __rt_ctype_table
    isgraph_o.o(.text) refers to ctype_o.o(.text) for __rt_ctype_table
    islower_o.o(.text) refers to ctype_o.o(.text) for __rt_ctype_table
    isprint_o.o(.text) refers to ctype_o.o(.text) for __rt_ctype_table
    ispunct_o.o(.text) refers to ctype_o.o(.text) for __rt_ctype_table
    isspace_o.o(.text) refers to ctype_o.o(.text) for __rt_ctype_table
    isupper_o.o(.text) refers to ctype_o.o(.text) for __rt_ctype_table
    isxdigit_o.o(.text) refers to ctype_o.o(.text) for __rt_ctype_table
    rand.o(.text) refers to rand.o(.data) for .data
    localeconv.o(.text) refers to ilconv.o(.constdata) for __internal_lconv
    localtime.o(.text) refers to localtime.o(.bss) for .bss
    localtime.o(.text) refers to localtime.o(.constdata) for .constdata
    mktime.o(.text) refers to localtime_i.o(.text) for _localtime
    mktime.o(.text) refers to mktime.o(.constdata) for .constdata
    strftime.o(.text) refers to strftime.o(.constdata) for .constdata
    asctime_s.o(.text) refers to strftime.o(.text) for strftime
    asctime_s.o(.text) refers to asctime_s.o(.bss) for .bss
    strcoll.o(.text) refers to strcmp.o(.text) for strcmp
    printfb.o(i.__0fprintf$bare) refers to printfb.o(i._printf_core) for _printf_core
    printfb.o(i.__0fprintf$bare) refers to fputc.o(i.fputc) for fputc
    printfb.o(i.__0printf$bare) refers to printfb.o(i._printf_core) for _printf_core
    printfb.o(i.__0printf$bare) refers to fputc.o(i.fputc) for fputc
    printfb.o(i.__0printf$bare) refers to stdout.o(.data) for __stdout
    printfb.o(i.__0snprintf$bare) refers to printfb.o(i._printf_core) for _printf_core
    printfb.o(i.__0snprintf$bare) refers to printfb.o(i._snputc) for _snputc
    printfb.o(i.__0sprintf$bare) refers to printfb.o(i._printf_core) for _printf_core
    printfb.o(i.__0sprintf$bare) refers to printfb.o(i._sputc) for _sputc
    printfb.o(i.__0vfprintf$bare) refers to printfb.o(i._printf_core) for _printf_core
    printfb.o(i.__0vfprintf$bare) refers to fputc.o(i.fputc) for fputc
    printfb.o(i.__0vprintf$bare) refers to printfb.o(i._printf_core) for _printf_core
    printfb.o(i.__0vprintf$bare) refers to fputc.o(i.fputc) for fputc
    printfb.o(i.__0vprintf$bare) refers to stdout.o(.data) for __stdout
    printfb.o(i.__0vsnprintf$bare) refers to printfb.o(i._printf_core) for _printf_core
    printfb.o(i.__0vsnprintf$bare) refers to printfb.o(i._snputc) for _snputc
    printfb.o(i.__0vsprintf$bare) refers to printfb.o(i._printf_core) for _printf_core
    printfb.o(i.__0vsprintf$bare) refers to printfb.o(i._sputc) for _sputc
    printf0.o(i.__0fprintf$0) refers to printf0.o(i._printf_core) for _printf_core
    printf0.o(i.__0fprintf$0) refers to fputc.o(i.fputc) for fputc
    printf0.o(i.__0printf$0) refers to printf0.o(i._printf_core) for _printf_core
    printf0.o(i.__0printf$0) refers to fputc.o(i.fputc) for fputc
    printf0.o(i.__0printf$0) refers to stdout.o(.data) for __stdout
    printf0.o(i.__0snprintf$0) refers to printf0.o(i._printf_core) for _printf_core
    printf0.o(i.__0snprintf$0) refers to printf0.o(i._snputc) for _snputc
    printf0.o(i.__0sprintf$0) refers to printf0.o(i._printf_core) for _printf_core
    printf0.o(i.__0sprintf$0) refers to printf0.o(i._sputc) for _sputc
    printf0.o(i.__0vfprintf$0) refers to printf0.o(i._printf_core) for _printf_core
    printf0.o(i.__0vfprintf$0) refers to fputc.o(i.fputc) for fputc
    printf0.o(i.__0vprintf$0) refers to printf0.o(i._printf_core) for _printf_core
    printf0.o(i.__0vprintf$0) refers to fputc.o(i.fputc) for fputc
    printf0.o(i.__0vprintf$0) refers to stdout.o(.data) for __stdout
    printf0.o(i.__0vsnprintf$0) refers to printf0.o(i._printf_core) for _printf_core
    printf0.o(i.__0vsnprintf$0) refers to printf0.o(i._snputc) for _snputc
    printf0.o(i.__0vsprintf$0) refers to printf0.o(i._printf_core) for _printf_core
    printf0.o(i.__0vsprintf$0) refers to printf0.o(i._sputc) for _sputc
    printf1.o(i.__0fprintf$1) refers to printf1.o(i._printf_core) for _printf_core
    printf1.o(i.__0fprintf$1) refers to fputc.o(i.fputc) for fputc
    printf1.o(i.__0printf$1) refers to printf1.o(i._printf_core) for _printf_core
    printf1.o(i.__0printf$1) refers to fputc.o(i.fputc) for fputc
    printf1.o(i.__0printf$1) refers to stdout.o(.data) for __stdout
    printf1.o(i.__0snprintf$1) refers to printf1.o(i._printf_core) for _printf_core
    printf1.o(i.__0snprintf$1) refers to printf1.o(i._snputc) for _snputc
    printf1.o(i.__0sprintf$1) refers to printf1.o(i._printf_core) for _printf_core
    printf1.o(i.__0sprintf$1) refers to printf1.o(i._sputc) for _sputc
    printf1.o(i.__0vfprintf$1) refers to printf1.o(i._printf_core) for _printf_core
    printf1.o(i.__0vfprintf$1) refers to fputc.o(i.fputc) for fputc
    printf1.o(i.__0vprintf$1) refers to printf1.o(i._printf_core) for _printf_core
    printf1.o(i.__0vprintf$1) refers to fputc.o(i.fputc) for fputc
    printf1.o(i.__0vprintf$1) refers to stdout.o(.data) for __stdout
    printf1.o(i.__0vsnprintf$1) refers to printf1.o(i._printf_core) for _printf_core
    printf1.o(i.__0vsnprintf$1) refers to printf1.o(i._snputc) for _snputc
    printf1.o(i.__0vsprintf$1) refers to printf1.o(i._printf_core) for _printf_core
    printf1.o(i.__0vsprintf$1) refers to printf1.o(i._sputc) for _sputc
    printf1.o(i._printf_core) refers to uidiv.o(.text) for __aeabi_uidivmod
    printf2.o(i.__0fprintf$2) refers to printf2.o(i._printf_core) for _printf_core
    printf2.o(i.__0fprintf$2) refers to fputc.o(i.fputc) for fputc
    printf2.o(i.__0printf$2) refers to printf2.o(i._printf_core) for _printf_core
    printf2.o(i.__0printf$2) refers to fputc.o(i.fputc) for fputc
    printf2.o(i.__0printf$2) refers to stdout.o(.data) for __stdout
    printf2.o(i.__0snprintf$2) refers to printf2.o(i._printf_core) for _printf_core
    printf2.o(i.__0snprintf$2) refers to printf2.o(i._snputc) for _snputc
    printf2.o(i.__0sprintf$2) refers to printf2.o(i._printf_core) for _printf_core
    printf2.o(i.__0sprintf$2) refers to printf2.o(i._sputc) for _sputc
    printf2.o(i.__0vfprintf$2) refers to printf2.o(i._printf_core) for _printf_core
    printf2.o(i.__0vfprintf$2) refers to fputc.o(i.fputc) for fputc
    printf2.o(i.__0vprintf$2) refers to printf2.o(i._printf_core) for _printf_core
    printf2.o(i.__0vprintf$2) refers to fputc.o(i.fputc) for fputc
    printf2.o(i.__0vprintf$2) refers to stdout.o(.data) for __stdout
    printf2.o(i.__0vsnprintf$2) refers to printf2.o(i._printf_core) for _printf_core
    printf2.o(i.__0vsnprintf$2) refers to printf2.o(i._snputc) for _snputc
    printf2.o(i.__0vsprintf$2) refers to printf2.o(i._printf_core) for _printf_core
    printf2.o(i.__0vsprintf$2) refers to printf2.o(i._sputc) for _sputc
    printf3.o(i.__0fprintf$3) refers to printf3.o(i._printf_core) for _printf_core
    printf3.o(i.__0fprintf$3) refers to fputc.o(i.fputc) for fputc
    printf3.o(i.__0printf$3) refers to printf3.o(i._printf_core) for _printf_core
    printf3.o(i.__0printf$3) refers to fputc.o(i.fputc) for fputc
    printf3.o(i.__0printf$3) refers to stdout.o(.data) for __stdout
    printf3.o(i.__0snprintf$3) refers to printf3.o(i._printf_core) for _printf_core
    printf3.o(i.__0snprintf$3) refers to printf3.o(i._snputc) for _snputc
    printf3.o(i.__0sprintf$3) refers to printf3.o(i._printf_core) for _printf_core
    printf3.o(i.__0sprintf$3) refers to printf3.o(i._sputc) for _sputc
    printf3.o(i.__0vfprintf$3) refers to printf3.o(i._printf_core) for _printf_core
    printf3.o(i.__0vfprintf$3) refers to fputc.o(i.fputc) for fputc
    printf3.o(i.__0vprintf$3) refers to printf3.o(i._printf_core) for _printf_core
    printf3.o(i.__0vprintf$3) refers to fputc.o(i.fputc) for fputc
    printf3.o(i.__0vprintf$3) refers to stdout.o(.data) for __stdout
    printf3.o(i.__0vsnprintf$3) refers to printf3.o(i._printf_core) for _printf_core
    printf3.o(i.__0vsnprintf$3) refers to printf3.o(i._snputc) for _snputc
    printf3.o(i.__0vsprintf$3) refers to printf3.o(i._printf_core) for _printf_core
    printf3.o(i.__0vsprintf$3) refers to printf3.o(i._sputc) for _sputc
    printf3.o(i._printf_core) refers to uidiv.o(.text) for __aeabi_uidivmod
    printf4.o(i.__0fprintf$4) refers to printf4.o(i._printf_core) for _printf_core
    printf4.o(i.__0fprintf$4) refers to fputc.o(i.fputc) for fputc
    printf4.o(i.__0printf$4) refers to printf4.o(i._printf_core) for _printf_core
    printf4.o(i.__0printf$4) refers to fputc.o(i.fputc) for fputc
    printf4.o(i.__0printf$4) refers to stdout.o(.data) for __stdout
    printf4.o(i.__0snprintf$4) refers to printf4.o(i._printf_core) for _printf_core
    printf4.o(i.__0snprintf$4) refers to printf4.o(i._snputc) for _snputc
    printf4.o(i.__0sprintf$4) refers to printf4.o(i._printf_core) for _printf_core
    printf4.o(i.__0sprintf$4) refers to printf4.o(i._sputc) for _sputc
    printf4.o(i.__0vfprintf$4) refers to printf4.o(i._printf_core) for _printf_core
    printf4.o(i.__0vfprintf$4) refers to fputc.o(i.fputc) for fputc
    printf4.o(i.__0vprintf$4) refers to printf4.o(i._printf_core) for _printf_core
    printf4.o(i.__0vprintf$4) refers to fputc.o(i.fputc) for fputc
    printf4.o(i.__0vprintf$4) refers to stdout.o(.data) for __stdout
    printf4.o(i.__0vsnprintf$4) refers to printf4.o(i._printf_core) for _printf_core
    printf4.o(i.__0vsnprintf$4) refers to printf4.o(i._snputc) for _snputc
    printf4.o(i.__0vsprintf$4) refers to printf4.o(i._printf_core) for _printf_core
    printf4.o(i.__0vsprintf$4) refers to printf4.o(i._sputc) for _sputc
    printf4.o(i._printf_core) refers to uldiv.o(.text) for __aeabi_uldivmod
    printf5.o(i.__0fprintf$5) refers to printf5.o(i._printf_core) for _printf_core
    printf5.o(i.__0fprintf$5) refers to fputc.o(i.fputc) for fputc
    printf5.o(i.__0printf$5) refers to printf5.o(i._printf_core) for _printf_core
    printf5.o(i.__0printf$5) refers to fputc.o(i.fputc) for fputc
    printf5.o(i.__0printf$5) refers to stdout.o(.data) for __stdout
    printf5.o(i.__0snprintf$5) refers to printf5.o(i._printf_core) for _printf_core
    printf5.o(i.__0snprintf$5) refers to printf5.o(i._snputc) for _snputc
    printf5.o(i.__0sprintf$5) refers to printf5.o(i._printf_core) for _printf_core
    printf5.o(i.__0sprintf$5) refers to printf5.o(i._sputc) for _sputc
    printf5.o(i.__0vfprintf$5) refers to printf5.o(i._printf_core) for _printf_core
    printf5.o(i.__0vfprintf$5) refers to fputc.o(i.fputc) for fputc
    printf5.o(i.__0vprintf$5) refers to printf5.o(i._printf_core) for _printf_core
    printf5.o(i.__0vprintf$5) refers to fputc.o(i.fputc) for fputc
    printf5.o(i.__0vprintf$5) refers to stdout.o(.data) for __stdout
    printf5.o(i.__0vsnprintf$5) refers to printf5.o(i._printf_core) for _printf_core
    printf5.o(i.__0vsnprintf$5) refers to printf5.o(i._snputc) for _snputc
    printf5.o(i.__0vsprintf$5) refers to printf5.o(i._printf_core) for _printf_core
    printf5.o(i.__0vsprintf$5) refers to printf5.o(i._sputc) for _sputc
    printf5.o(i._printf_core) refers to uldiv.o(.text) for __aeabi_uldivmod
    printf6.o(i.__0fprintf$6) refers to printf6.o(i._printf_core) for _printf_core
    printf6.o(i.__0fprintf$6) refers to fputc.o(i.fputc) for fputc
    printf6.o(i.__0printf$6) refers to printf6.o(i._printf_core) for _printf_core
    printf6.o(i.__0printf$6) refers to fputc.o(i.fputc) for fputc
    printf6.o(i.__0printf$6) refers to stdout.o(.data) for __stdout
    printf6.o(i.__0snprintf$6) refers to printf6.o(i._printf_core) for _printf_core
    printf6.o(i.__0snprintf$6) refers to printf6.o(i._snputc) for _snputc
    printf6.o(i.__0sprintf$6) refers to printf6.o(i._printf_core) for _printf_core
    printf6.o(i.__0sprintf$6) refers to printf6.o(i._sputc) for _sputc
    printf6.o(i.__0vfprintf$6) refers to printf6.o(i._printf_core) for _printf_core
    printf6.o(i.__0vfprintf$6) refers to fputc.o(i.fputc) for fputc
    printf6.o(i.__0vprintf$6) refers to printf6.o(i._printf_core) for _printf_core
    printf6.o(i.__0vprintf$6) refers to fputc.o(i.fputc) for fputc
    printf6.o(i.__0vprintf$6) refers to stdout.o(.data) for __stdout
    printf6.o(i.__0vsnprintf$6) refers to printf6.o(i._printf_core) for _printf_core
    printf6.o(i.__0vsnprintf$6) refers to printf6.o(i._snputc) for _snputc
    printf6.o(i.__0vsprintf$6) refers to printf6.o(i._printf_core) for _printf_core
    printf6.o(i.__0vsprintf$6) refers to printf6.o(i._sputc) for _sputc
    printf6.o(i._printf_core) refers to printf6.o(i._printf_pre_padding) for _printf_pre_padding
    printf6.o(i._printf_core) refers to uidiv.o(.text) for __aeabi_uidivmod
    printf6.o(i._printf_core) refers to printf6.o(i._printf_post_padding) for _printf_post_padding
    printf7.o(i.__0fprintf$7) refers to printf7.o(i._printf_core) for _printf_core
    printf7.o(i.__0fprintf$7) refers to fputc.o(i.fputc) for fputc
    printf7.o(i.__0printf$7) refers to printf7.o(i._printf_core) for _printf_core
    printf7.o(i.__0printf$7) refers to fputc.o(i.fputc) for fputc
    printf7.o(i.__0printf$7) refers to stdout.o(.data) for __stdout
    printf7.o(i.__0snprintf$7) refers to printf7.o(i._printf_core) for _printf_core
    printf7.o(i.__0snprintf$7) refers to printf7.o(i._snputc) for _snputc
    printf7.o(i.__0sprintf$7) refers to printf7.o(i._printf_core) for _printf_core
    printf7.o(i.__0sprintf$7) refers to printf7.o(i._sputc) for _sputc
    printf7.o(i.__0vfprintf$7) refers to printf7.o(i._printf_core) for _printf_core
    printf7.o(i.__0vfprintf$7) refers to fputc.o(i.fputc) for fputc
    printf7.o(i.__0vprintf$7) refers to printf7.o(i._printf_core) for _printf_core
    printf7.o(i.__0vprintf$7) refers to fputc.o(i.fputc) for fputc
    printf7.o(i.__0vprintf$7) refers to stdout.o(.data) for __stdout
    printf7.o(i.__0vsnprintf$7) refers to printf7.o(i._printf_core) for _printf_core
    printf7.o(i.__0vsnprintf$7) refers to printf7.o(i._snputc) for _snputc
    printf7.o(i.__0vsprintf$7) refers to printf7.o(i._printf_core) for _printf_core
    printf7.o(i.__0vsprintf$7) refers to printf7.o(i._sputc) for _sputc
    printf7.o(i._printf_core) refers to printf7.o(i._printf_pre_padding) for _printf_pre_padding
    printf7.o(i._printf_core) refers to uldiv.o(.text) for __aeabi_uldivmod
    printf7.o(i._printf_core) refers to printf7.o(i._printf_post_padding) for _printf_post_padding
    printf8.o(i.__0fprintf$8) refers to printf8.o(i._printf_core) for _printf_core
    printf8.o(i.__0fprintf$8) refers to fputc.o(i.fputc) for fputc
    printf8.o(i.__0printf$8) refers to printf8.o(i._printf_core) for _printf_core
    printf8.o(i.__0printf$8) refers to fputc.o(i.fputc) for fputc
    printf8.o(i.__0printf$8) refers to stdout.o(.data) for __stdout
    printf8.o(i.__0snprintf$8) refers to printf8.o(i._printf_core) for _printf_core
    printf8.o(i.__0snprintf$8) refers to printf8.o(i._snputc) for _snputc
    printf8.o(i.__0sprintf$8) refers to printf8.o(i._printf_core) for _printf_core
    printf8.o(i.__0sprintf$8) refers to printf8.o(i._sputc) for _sputc
    printf8.o(i.__0vfprintf$8) refers to printf8.o(i._printf_core) for _printf_core
    printf8.o(i.__0vfprintf$8) refers to fputc.o(i.fputc) for fputc
    printf8.o(i.__0vprintf$8) refers to printf8.o(i._printf_core) for _printf_core
    printf8.o(i.__0vprintf$8) refers to fputc.o(i.fputc) for fputc
    printf8.o(i.__0vprintf$8) refers to stdout.o(.data) for __stdout
    printf8.o(i.__0vsnprintf$8) refers to printf8.o(i._printf_core) for _printf_core
    printf8.o(i.__0vsnprintf$8) refers to printf8.o(i._snputc) for _snputc
    printf8.o(i.__0vsprintf$8) refers to printf8.o(i._printf_core) for _printf_core
    printf8.o(i.__0vsprintf$8) refers to printf8.o(i._sputc) for _sputc
    printf8.o(i._printf_core) refers to printf8.o(i._printf_pre_padding) for _printf_pre_padding
    printf8.o(i._printf_core) refers to uldiv.o(.text) for __aeabi_uldivmod
    printf8.o(i._printf_core) refers to printf8.o(i._printf_post_padding) for _printf_post_padding
    printfa.o(i.__0fprintf) refers (Special) to iusefp.o(.text) for __I$use$fp
    printfa.o(i.__0fprintf) refers to printfa.o(i._printf_core) for _printf_core
    printfa.o(i.__0fprintf) refers to fputc.o(i.fputc) for fputc
    printfa.o(i.__0printf) refers (Special) to iusefp.o(.text) for __I$use$fp
    printfa.o(i.__0printf) refers to printfa.o(i._printf_core) for _printf_core
    printfa.o(i.__0printf) refers to fputc.o(i.fputc) for fputc
    printfa.o(i.__0printf) refers to stdout.o(.data) for __stdout
    printfa.o(i.__0snprintf) refers (Special) to iusefp.o(.text) for __I$use$fp
    printfa.o(i.__0snprintf) refers to printfa.o(i._printf_core) for _printf_core
    printfa.o(i.__0snprintf) refers to printfa.o(i._snputc) for _snputc
    printfa.o(i.__0sprintf) refers (Special) to iusefp.o(.text) for __I$use$fp
    printfa.o(i.__0sprintf) refers to printfa.o(i._printf_core) for _printf_core
    printfa.o(i.__0sprintf) refers to printfa.o(i._sputc) for _sputc
    printfa.o(i.__0vfprintf) refers (Special) to iusefp.o(.text) for __I$use$fp
    printfa.o(i.__0vfprintf) refers to printfa.o(i._printf_core) for _printf_core
    printfa.o(i.__0vfprintf) refers to fputc.o(i.fputc) for fputc
    printfa.o(i.__0vprintf) refers (Special) to iusefp.o(.text) for __I$use$fp
    printfa.o(i.__0vprintf) refers to printfa.o(i._printf_core) for _printf_core
    printfa.o(i.__0vprintf) refers to fputc.o(i.fputc) for fputc
    printfa.o(i.__0vprintf) refers to stdout.o(.data) for __stdout
    printfa.o(i.__0vsnprintf) refers (Special) to iusefp.o(.text) for __I$use$fp
    printfa.o(i.__0vsnprintf) refers to printfa.o(i._printf_core) for _printf_core
    printfa.o(i.__0vsnprintf) refers to printfa.o(i._snputc) for _snputc
    printfa.o(i.__0vsprintf) refers (Special) to iusefp.o(.text) for __I$use$fp
    printfa.o(i.__0vsprintf) refers to printfa.o(i._printf_core) for _printf_core
    printfa.o(i.__0vsprintf) refers to printfa.o(i._sputc) for _sputc
    printfa.o(i._fp_digits) refers (Special) to iusefp.o(.text) for __I$use$fp
    printfa.o(i._fp_digits) refers to dmul.o(.text) for __aeabi_dmul
    printfa.o(i._fp_digits) refers to ddiv.o(.text) for __aeabi_ddiv
    printfa.o(i._fp_digits) refers to cdrcmple.o(.text) for __aeabi_cdrcmple
    printfa.o(i._fp_digits) refers to dadd.o(.text) for __aeabi_dadd
    printfa.o(i._fp_digits) refers to dfixul.o(.text) for __aeabi_d2ulz
    printfa.o(i._fp_digits) refers to uldiv.o(.text) for __aeabi_uldivmod
    printfa.o(i._printf_core) refers (Special) to iusefp.o(.text) for __I$use$fp
    printfa.o(i._printf_core) refers to printfa.o(i._printf_pre_padding) for _printf_pre_padding
    printfa.o(i._printf_core) refers to uldiv.o(.text) for __aeabi_uldivmod
    printfa.o(i._printf_core) refers to printfa.o(i._printf_post_padding) for _printf_post_padding
    printfa.o(i._printf_core) refers to printfa.o(i._fp_digits) for _fp_digits
    printfa.o(i._printf_core) refers to uidiv.o(.text) for __aeabi_uidivmod
    printfa.o(i._printf_post_padding) refers (Special) to iusefp.o(.text) for __I$use$fp
    printfa.o(i._printf_pre_padding) refers (Special) to iusefp.o(.text) for __I$use$fp
    printfa.o(i._snputc) refers (Special) to iusefp.o(.text) for __I$use$fp
    printfa.o(i._sputc) refers (Special) to iusefp.o(.text) for __I$use$fp
    malloc.o(i.free) refers to mvars.o(.data) for __microlib_freelist
    malloc.o(i.malloc) refers to mvars.o(.data) for __microlib_freelist_initialised
    malloc.o(i.malloc) refers to mvars.o(.data) for __microlib_freelist
    malloc.o(i.malloc) refers to startup_stm32f10x_hd.o(HEAP) for __heap_base
    mallocr.o(i.__free$realloc) refers to mvars.o(.data) for __microlib_freelist
    mallocr.o(i.__malloc$realloc) refers to mallocr.o(i.internal_alloc) for internal_alloc
    mallocr.o(i.__malloc$realloc) refers to mvars.o(.data) for __microlib_freelist_initialised
    mallocr.o(i.__malloc$realloc) refers to startup_stm32f10x_hd.o(HEAP) for __heap_base
    mallocr.o(i.__malloc$realloc) refers to mvars.o(.data) for __microlib_freelist
    mallocr.o(i.internal_alloc) refers to memmovea.o(.text) for __aeabi_memcpy
    mallocr.o(i.internal_alloc) refers to mvars.o(.data) for __microlib_freelist
    mallocr.o(i.realloc) refers to mallocr.o(i.__free$realloc) for free
    mallocr.o(i.realloc) refers to mallocr.o(i.internal_alloc) for internal_alloc
    mallocr.o(i.realloc) refers to mallocr.o(i.__malloc$realloc) for malloc
    mallocr.o(i.realloc) refers to mvars.o(.data) for __microlib_freelist
    malloca.o(i.__aligned_malloc) refers to mvars.o(.data) for __microlib_freelist_initialised
    malloca.o(i.__aligned_malloc) refers to mvars.o(.data) for __microlib_freelist
    malloca.o(i.__aligned_malloc) refers to startup_stm32f10x_hd.o(HEAP) for __heap_base
    malloca.o(i.__free$memalign) refers to mvars.o(.data) for __microlib_freelist
    malloca.o(i.__malloc$memalign) refers to malloca.o(i.__aligned_malloc) for __aligned_malloc
    mallocra.o(i.__aligned_malloc$realloc) refers to mallocra.o(i.internal_alloc) for internal_alloc
    mallocra.o(i.__aligned_malloc$realloc) refers to mvars.o(.data) for __microlib_freelist_initialised
    mallocra.o(i.__aligned_malloc$realloc) refers to startup_stm32f10x_hd.o(HEAP) for __heap_base
    mallocra.o(i.__aligned_malloc$realloc) refers to mvars.o(.data) for __microlib_freelist
    mallocra.o(i.__free$realloc$memalign) refers to mvars.o(.data) for __microlib_freelist
    mallocra.o(i.__malloc$realloc$memalign) refers to mallocra.o(i.__aligned_malloc$realloc) for __aligned_malloc$realloc
    mallocra.o(i.__realloc$memalign) refers to mallocra.o(i.__free$realloc$memalign) for __free$realloc$memalign
    mallocra.o(i.__realloc$memalign) refers to mallocra.o(i.internal_alloc) for internal_alloc
    mallocra.o(i.__realloc$memalign) refers to mallocra.o(i.__malloc$realloc$memalign) for __malloc$realloc$memalign
    mallocra.o(i.__realloc$memalign) refers to mvars.o(.data) for __microlib_freelist
    mallocra.o(i.internal_alloc) refers to memmovea.o(.text) for __aeabi_memcpy
    mallocra.o(i.internal_alloc) refers to mvars.o(.data) for __microlib_freelist
    errno.o(i.__aeabi_errno_addr) refers to errno.o(.data) for .data
    errno.o(i.__read_errno) refers to errno.o(.data) for .data
    errno.o(i.__set_errno) refers to errno.o(.data) for .data
    atol.o(.text) refers to errno.o(i.__aeabi_errno_addr) for __aeabi_errno_addr
    atol.o(.text) refers to strtol.o(.text) for strtol
    cpp_init.o(.emb_text) refers (Special) to entry8a.o(.ARM.Collect$$$$00000009) for _main_cpp_init$empty
    cpp_init.o(.init_array) refers (Special) to entry8a.o(.ARM.Collect$$$$00000009) for _main_cpp_init$empty
    cpp_init.o(.init_array) refers to cpp_init.o(.text) for __cpp_initialize__aeabi_
    cpp_init.o(.dummy_text) refers (Special) to entry8a.o(.ARM.Collect$$$$00000009) for _main_cpp_init$empty
    cpp_init.o(.text) refers (Special) to entry8a.o(.ARM.Collect$$$$00000009) for _main_cpp_init$empty
    aeabi_atexit.o(.text) refers (Special) to cxa_finalize.o(.text) for __cxa_finalize
    aeabi_atexit.o(.text) refers to mallocr.o(i.__malloc$realloc) for malloc
    aeabi_atexit.o(.text) refers to cpp_dtor.o(.text) for __rt_ddtor_pointer_addr
    fadd.o(.text) refers (Special) to iusefp.o(.text) for __I$use$fp
    fadd.o(.text) refers to fepilogue.o(.text) for _float_epilogue
    fmul.o(.text) refers (Special) to iusefp.o(.text) for __I$use$fp
    fdiv.o(.text) refers (Special) to iusefp.o(.text) for __I$use$fp
    fdiv.o(.text) refers to fepilogue.o(.text) for _float_round
    dadd.o(.text) refers (Special) to iusefp.o(.text) for __I$use$fp
    dadd.o(.text) refers to llshl.o(.text) for __aeabi_llsl
    dadd.o(.text) refers to llsshr.o(.text) for __aeabi_lasr
    dadd.o(.text) refers to depilogue.o(.text) for _double_epilogue
    dmul.o(.text) refers (Special) to iusefp.o(.text) for __I$use$fp
    dmul.o(.text) refers to depilogue.o(.text) for _double_epilogue
    ddiv.o(.text) refers (Special) to iusefp.o(.text) for __I$use$fp
    ddiv.o(.text) refers to depilogue.o(.text) for _double_round
    fflti.o(.text) refers (Special) to iusefp.o(.text) for __I$use$fp
    fflti.o(.text) refers to fepilogue.o(.text) for _float_epilogue
    ffltui.o(.text) refers (Special) to iusefp.o(.text) for __I$use$fp
    ffltui.o(.text) refers to fepilogue.o(.text) for _float_epilogue
    dflti.o(.text) refers (Special) to iusefp.o(.text) for __I$use$fp
    dflti.o(.text) refers to depilogue.o(.text) for _double_epilogue
    dfltl.o(.text) refers (Special) to iusefp.o(.text) for __I$use$fp
    dfltl.o(.text) refers to depilogue.o(.text) for _double_epilogue
    ffixi.o(.text) refers (Special) to iusefp.o(.text) for __I$use$fp
    ffixui.o(.text) refers (Special) to iusefp.o(.text) for __I$use$fp
    dfixi.o(.text) refers (Special) to iusefp.o(.text) for __I$use$fp
    dfixi.o(.text) refers to llushr.o(.text) for __aeabi_llsr
    dfixl.o(.text) refers (Special) to iusefp.o(.text) for __I$use$fp
    dfixl.o(.text) refers to llushr.o(.text) for __aeabi_llsr
    dfixl.o(.text) refers to llshl.o(.text) for __aeabi_llsl
    f2d.o(.text) refers (Special) to iusefp.o(.text) for __I$use$fp
    cdcmple.o(.text) refers (Special) to iusefp.o(.text) for __I$use$fp
    cdrcmple.o(.text) refers (Special) to iusefp.o(.text) for __I$use$fp
    d2f.o(.text) refers (Special) to iusefp.o(.text) for __I$use$fp
    d2f.o(.text) refers to fepilogue.o(.text) for _float_round
    cfcmple.o(.text) refers (Special) to iusefp.o(.text) for __I$use$fp
    cfrcmple.o(.text) refers (Special) to iusefp.o(.text) for __I$use$fp
    delete.o(i._ZdlPv) refers to mallocr.o(i.__free$realloc) for free
    delete.o(.ARM.exidx) refers to delete.o(i._ZdlPv) for i._ZdlPv
    new.o(i._Znwj) refers to cpp_memory.o(.text) for __rt_new_handler_addr
    new.o(i._Znwj) refers to mallocr.o(i.__malloc$realloc) for malloc
    new.o(i._Znwj) refers to arm_newhandler_noexceptions.o(.text) for __default_new_handler()
    new.o(.ARM.exidx) refers to new.o(i._Znwj) for i._Znwj
    new.o(.ARM.exidx) refers to unwind_pr0.o(.text) for __aeabi_unwind_cpp_pr0
    new.o(.ARM.exidx) refers to new.o(.ARM.extab) for .extab._Znwj
    new.o(.ARM.extab) refers to arm_callunex_noexceptions.o(.text) for __cxa_call_unexpected
    new.o(.ARM.extab) refers to bad_alloc_dtor.o(.constdata__ZTISt9bad_alloc) for typeinfo for std::bad_alloc
    arm_callunex_noexceptions.o(.ARM.exidx) refers to arm_callunex_noexceptions.o(.text) for .text
    bad_alloc_dtor.o(i._ZNSt9bad_allocD0Ev) refers to bad_alloc_dtor.o(i._ZNSt9bad_allocD1Ev) for std::bad_alloc::~bad_alloc()
    bad_alloc_dtor.o(i._ZNSt9bad_allocD0Ev) refers to delete.o(i._ZdlPv) for operator delete (void*)
    bad_alloc_dtor.o(.ARM.exidx) refers to bad_alloc_dtor.o(i._ZNSt9bad_allocD1Ev) for i._ZNSt9bad_allocD1Ev
    bad_alloc_dtor.o(.ARM.exidx) refers to bad_alloc_dtor.o(i._ZNSt9bad_allocD0Ev) for i._ZNSt9bad_allocD0Ev
    type_info_dtor.o(.ARM.exidx) refers to type_info_dtor.o(i._ZNSt9type_infoD1Ev) for i._ZNSt9type_infoD1Ev
    type_info_dtor.o(.ARM.exidx) refers to type_info_dtor.o(i._ZNSt9type_infoD0Ev) for i._ZNSt9type_infoD0Ev
    arm_exceptions_callterm.o(.text) refers to arm_exceptions_globs.o(.text) for __cxa_get_globals
    arm_exceptions_callterm.o(.text) refers to arm_exceptions_support.o(.text) for __ARM::is_foreign_exception(_Unwind_Control_Block*)
    arm_exceptions_callterm.o(.text) refers to arm_exceptions_terminate.o(.text) for std::terminate()
    arm_exceptions_callterm.o(.ARM.exidx) refers to arm_exceptions_callterm.o(.text) for .text
    unwind_pr0.o(.text) refers to unwind_prcommon.o(.text) for __ARM_unwind_cpp_prcommon
    unwind_pr0.o(.ARM.exidx) refers to unwind_pr0.o(.text) for .text
    fpclassifyf.o(i.__ARM_fpclassifyf) refers (Special) to iusefp.o(.text) for __I$use$fp
    funder.o(i.__mathlib_flt_divzero) refers to fdiv.o(.text) for __aeabi_fdiv
    funder.o(i.__mathlib_flt_infnan) refers to fscalb.o(.text) for __ARM_scalbnf
    funder.o(i.__mathlib_flt_infnan2) refers to fadd.o(.text) for __aeabi_fadd
    funder.o(i.__mathlib_flt_invalid) refers to fdiv.o(.text) for __aeabi_fdiv
    funder.o(i.__mathlib_flt_overflow) refers to fscalb.o(.text) for __ARM_scalbnf
    funder.o(i.__mathlib_flt_posinfnan) refers to fmul.o(.text) for __aeabi_fmul
    funder.o(i.__mathlib_flt_underflow) refers to fscalb.o(.text) for __ARM_scalbnf
    rredf.o(i.__mathlib_rredf2) refers (Special) to iusefp.o(.text) for __I$use$fp
    rredf.o(i.__mathlib_rredf2) refers to fflti.o(.text) for __aeabi_i2f
    rredf.o(i.__mathlib_rredf2) refers to ffltui.o(.text) for __aeabi_ui2f
    rredf.o(i.__mathlib_rredf2) refers to fscalb.o(.text) for __ARM_scalbnf
    rredf.o(i.__mathlib_rredf2) refers to fadd.o(.text) for __aeabi_fadd
    rredf.o(i.__mathlib_rredf2) refers to fmul.o(.text) for __aeabi_fmul
    rredf.o(i.__mathlib_rredf2) refers to rredf.o(.constdata) for .constdata
    rredf.o(.constdata) refers (Special) to iusefp.o(.text) for __I$use$fp
    entry2.o(.ARM.Collect$$$$00000001) refers to entry2.o(.ARM.Collect$$$$00002712) for __lit__00000000
    entry2.o(.ARM.Collect$$$$00002712) refers to startup_stm32f10x_hd.o(STACK) for __initial_sp
    entry2.o(__vectab_stack_and_reset_area) refers to startup_stm32f10x_hd.o(STACK) for __initial_sp
    entry2.o(__vectab_stack_and_reset_area) refers to entry.o(.ARM.Collect$$$$00000000) for __main
    entry5.o(.ARM.Collect$$$$00000004) refers to init.o(.text) for __scatterload
    entry8a.o(.ARM.Collect$$$$00000009) refers (Weak) to cpp_init.o(.text) for __cpp_initialize__aeabi_
    entry9a.o(.ARM.Collect$$$$0000000B) refers to main.o(.text) for main
    entry9b.o(.ARM.Collect$$$$0000000C) refers to main.o(.text) for main
    entry10b.o(.ARM.Collect$$$$0000000E) refers (Weak) to cxa_finalize.o(.text) for __cxa_finalize
    fgetc.o(.text) refers (Special) to iusesemig.o(.text) for __I$use$semihosting$fgetc
    fgetc.o(.text) refers (Special) to semi.o(.text) for __semihosting_library_function
    fgetc_b.o(.text) refers (Special) to iusesemig.o(.text) for __I$use$semihosting$fgetc
    fgetc_b.o(.text) refers (Special) to semi.o(.text) for __semihosting_library_function
    fgetc_b.o(.text) refers to fgetc_b.o(.data) for .data
    fgetc_b.o(.data) refers (Special) to iusesemig.o(.text) for __I$use$semihosting$fgetc
    fgetc_b.o(.data) refers (Special) to semi.o(.text) for __semihosting_library_function
    fputc.o(i.fputc) refers (Special) to iusesemip.o(.text) for __I$use$semihosting$fputc
    fputc.o(i.fputc) refers (Special) to semi.o(.text) for __semihosting_library_function
    ilconv.o(.constdata) refers to ilconv.o(.conststring) for .conststring
    localtime_w.o(.text) refers to localtime_i.o(.text) for _localtime
    localtime_w.o(.text) refers to localtime_w.o(.bss) for .bss
    localtime_i.o(.text) refers to localtime_i.o(.constdata) for .constdata
    strtod.o(.text) refers to scanf_fp.o(.text) for _scanf_real
    strtod.o(.text) refers to _sgetc.o(.text) for _sgetc
    strtod.o(.text) refers to wstring.o(i.isspace) for isspace
    strtof.o(.text) refers to strtod.o(.text) for __strtod_int
    strtof.o(.text) refers to narrow.o(i.__mathlib_narrow) for __mathlib_narrow
    strtol.o(.text) refers to ctype_o.o(.text) for __rt_ctype_table
    strtol.o(.text) refers to _strtoul.o(.text) for _strtoul
    strtol.o(.text) refers to errno.o(i.__aeabi_errno_addr) for __aeabi_errno_addr
    cpp_dtor.o(.text) refers to cpp_dtor.o(.data) for .data
    cxa_finalize.o(.text) refers (Special) to cpp_final.o(.text) for __rt_lib_shutdown_cpp_2
    cxa_finalize.o(.text) refers to cpp_dtor.o(.text) for __rt_ddtor_pointer_addr
    cxa_finalize.o(.text) refers to mallocr.o(i.__free$realloc) for free
    fsqrt.o(.text) refers to fepilogue.o(.text) for _float_round
    frnd.o(.text) refers to fepilogue.o(.text) for _float_round
    frem.o(.text) refers to fepilogue.o(.text) for _float_epilogue
    depilogue.o(.text) refers to llshl.o(.text) for __aeabi_llsl
    depilogue.o(.text) refers to llushr.o(.text) for __aeabi_llsr
    dfltui.o(.text) refers to depilogue.o(.text) for _double_epilogue
    dfixul.o(.text) refers to llushr.o(.text) for __aeabi_llsr
    dfixul.o(.text) refers to llshl.o(.text) for __aeabi_llsl
    ffixir.o(.text) refers to fepilogue.o(.text) for _float_round
    arm_begincatch_noexceptions.o(.ARM.exidx) refers to arm_begincatch_noexceptions.o(.text) for .text
    arm_newhandler_noexceptions.o(.text) refers to arm_exceptions_terminate.o(.text) for std::terminate()
    arm_newhandler_noexceptions.o(.ARM.exidx) refers to arm_newhandler_noexceptions.o(.text) for .text
    bad_alloc_what.o(.ARM.exidx) refers to bad_alloc_what.o(i._ZNKSt9bad_alloc4whatEv) for i._ZNKSt9bad_alloc4whatEv
    exception_dtor.o(i._ZNSt9exceptionD0Ev) refers to delete.o(i._ZdlPv) for operator delete (void*)
    exception_dtor.o(.ARM.exidx) refers to exception_dtor.o(i._ZNSt9exceptionD1Ev) for i._ZNSt9exceptionD1Ev
    exception_dtor.o(.ARM.exidx) refers to exception_dtor.o(i._ZNSt9exceptionD0Ev) for i._ZNSt9exceptionD0Ev
    arm_exceptions_terminate.o(.text) refers to arm_exceptions_globs.o(.text) for __cxa_get_globals
    arm_exceptions_terminate.o(.ARM.exidx) refers to arm_exceptions_terminate.o(.text) for .text
    arm_exceptions_support.o(.text) refers to arm_exceptions_support.o(.constdata) for .constdata
    arm_exceptions_support.o(.ARM.exidx) refers to arm_exceptions_support.o(.text) for .text
    arm_exceptions_globs.o(.text) refers to cpp_memory.o(.text) for __rt_eh_globals_addr
    arm_exceptions_globs.o(.text) refers to mallocr.o(i.__malloc$realloc) for malloc
    arm_exceptions_globs.o(.text) refers to arm_exceptions_mem.o(.text) for __ARM_exceptions_buffer_init
    arm_exceptions_globs.o(.ARM.exidx) refers to arm_exceptions_globs.o(.text) for .text
    unwind_prcommon.o(.text) refers to unwinder.o(.text) for _Unwind_VRS_Get
    unwind_prcommon.o(.text) refers to unwind_activity.o(.emb_text) for _Unwind_Activity
    unwind_prcommon.o(.text) refers (Weak) to arm_callunex_noexceptions.o(.text) for __cxa_call_unexpected
    unwind_prcommon.o(.ARM.exidx) refers to unwind_prcommon.o(.text) for .text
    narrow.o(i.__mathlib_narrow) refers (Special) to iusefp.o(.text) for __I$use$fp
    narrow.o(i.__mathlib_narrow) refers to narrow.o(i.__mathlib_tofloat) for __mathlib_tofloat
    narrow.o(i.__mathlib_tofloat) refers (Special) to iusefp.o(.text) for __I$use$fp
    narrow.o(i.__mathlib_tofloat) refers to frexp.o(i.frexp) for frexp
    narrow.o(i.__mathlib_tofloat) refers to cdcmple.o(.text) for __aeabi_cdcmpeq
    narrow.o(i.__mathlib_tofloat) refers to fpstat.o(.text) for __ieee_status
    narrow.o(i.__mathlib_tofloat) refers to d2f.o(.text) for __aeabi_d2f
    narrow.o(i.__mathlib_tofloat) refers to errno.o(i.__set_errno) for __set_errno
    narrow.o(i.__mathlib_tofloat) refers to cdrcmple.o(.text) for __aeabi_cdrcmple
    narrow.o(i.__softfp___mathlib_tofloat) refers (Special) to iusefp.o(.text) for __I$use$fp
    narrow.o(i.__softfp___mathlib_tofloat) refers to narrow.o(i.__mathlib_tofloat) for __mathlib_tofloat
    init.o(.text) refers to entry5.o(.ARM.Collect$$$$00000004) for __main_after_scatterload
    scanf_fp.o(.text) refers (Special) to iusefp.o(.text) for __I$use$fp
    scanf_fp.o(.text) refers to dfltul.o(.text) for __aeabi_ul2d
    scanf_fp.o(.text) refers to dmul.o(.text) for __aeabi_dmul
    scanf_fp.o(.text) refers to ddiv.o(.text) for __aeabi_ddiv
    scanf_fp.o(.text) refers to scanf_fp.o(i._is_digit) for _is_digit
    scanf_fp.o(.text) refers to d2f.o(.text) for __aeabi_d2f
    _strtoul.o(.text) refers to _chval.o(.text) for _chval
    _strtoul.o(.text) refers to errno.o(i.__aeabi_errno_addr) for __aeabi_errno_addr
    cpp_final.o(.text) refers (Special) to entry10b.o(.ARM.Collect$$$$0000000E) for __rt_final_cpp$nonempty
    cpp_memory.o(.text) refers to cpp_memory.o(.data) for .data
    exception_what.o(.ARM.exidx) refers to exception_what.o(i._ZNKSt9exception4whatEv) for i._ZNKSt9exception4whatEv
    arm_exceptions_mem.o(.text) refers to mallocr.o(i.__malloc$realloc) for malloc
    arm_exceptions_mem.o(.ARM.exidx) refers to arm_exceptions_mem.o(.text) for .text
    unwinder.o(.emb_text) refers to unwinder.o(.text) for __ARM_Unwind_RaiseException
    unwinder.o(.text) refers to bsearch.o(.text) for bsearch
    unwinder.o(.text) refers to unwind_activity.o(.emb_text) for _Unwind_Activity
    unwinder.o(.text) refers to unwinder.o(.emb_text) for __ARM_Unwind_VRS_corerestore
    unwinder.o(.text) refers to mallocr.o(i.__malloc$realloc) for malloc
    unwinder.o(.text) refers to memmovea.o(.text) for __aeabi_memcpy4
    unwinder.o(.text) refers to mallocr.o(i.__free$realloc) for free
    unwinder.o(.text) refers (Weak) to unwind_pr0.o(.text) for __aeabi_unwind_cpp_pr0
    unwinder.o(.ARM.exidx) refers to unwinder.o(.text) for .text
    frexp.o(i.__softfp_frexp) refers (Special) to iusefp.o(.text) for __I$use$fp
    frexp.o(i.__softfp_frexp) refers to dscalb.o(.text) for __ARM_scalbn
    frexp.o(i.frexp) refers (Special) to iusefp.o(.text) for __I$use$fp
    frexp.o(i.frexp) refers to dscalb.o(.text) for __ARM_scalbn
    dfltul.o(.text) refers to depilogue.o(.text) for _double_epilogue
    print.o(.constdata__ZTV5Print) refers to print.o(.constdata__ZTI5Print) for typeinfo for Print
    print.o(.constdata__ZTV5Print) refers to pure_virt.o(i.__cxa_pure_virtual) for __cxa_pure_virtual
    print.o(.constdata__ZTV5Print) refers to print.o(.text) for Print::write(const char*)
    print.o(.constdata__ZTI5Print) refers to lib_rtti_impl.o(.constdata__ZTVN10__cxxabiv117__class_type_infoE) for vtable for __cxxabiv1::__class_type_info
    print.o(.constdata__ZTI5Print) refers to print.o(.constdata__ZTS5Print) for typeinfo name for Print
    hardwareserial.o(.constdata__ZTV14HardwareSerial) refers to hardwareserial.o(.constdata__ZTI14HardwareSerial) for typeinfo for HardwareSerial
    hardwareserial.o(.constdata__ZTV14HardwareSerial) refers to hardwareserial.o(.text) for HardwareSerial::write(unsigned char)
    hardwareserial.o(.constdata__ZTV14HardwareSerial) refers to print.o(.text) for Print::write(const char*)
    hardwareserial.o(.constdata__ZTV6Stream) refers to hardwareserial.o(.constdata__ZTI6Stream) for typeinfo for Stream
    hardwareserial.o(.constdata__ZTV6Stream) refers to pure_virt.o(i.__cxa_pure_virtual) for __cxa_pure_virtual
    hardwareserial.o(.constdata__ZTV6Stream) refers to print.o(.text) for Print::write(const char*)
    hardwareserial.o(.constdata__ZTI14HardwareSerial) refers to lib_rtti_impl.o(.constdata__ZTVN10__cxxabiv120__si_class_type_infoE) for vtable for __cxxabiv1::__si_class_type_info
    hardwareserial.o(.constdata__ZTI14HardwareSerial) refers to hardwareserial.o(.constdata__ZTS14HardwareSerial) for typeinfo name for HardwareSerial
    hardwareserial.o(.constdata__ZTI14HardwareSerial) refers to hardwareserial.o(.constdata__ZTI6Stream) for typeinfo for Stream
    hardwareserial.o(.constdata__ZTI6Stream) refers to lib_rtti_impl.o(.constdata__ZTVN10__cxxabiv120__si_class_type_infoE) for vtable for __cxxabiv1::__si_class_type_info
    hardwareserial.o(.constdata__ZTI6Stream) refers to hardwareserial.o(.constdata__ZTS6Stream) for typeinfo name for Stream
    hardwareserial.o(.constdata__ZTI6Stream) refers to print.o(.constdata__ZTI5Print) for typeinfo for Print
    stream.o(i._ZN6StringpLEc) refers to wstring.o(.text) for String::concat(char)
    stream.o(.ARM.exidx) refers to stream.o(i._ZN6StringpLEc) for i._ZN6StringpLEc
    wstring.o(i.isspace) refers to ctype_o.o(.text) for __rt_ctype_table
    wstring.o(.ARM.exidx) refers to wstring.o(i.isspace) for i.isspace
    wstring.o(.ARM.exidx) refers to wstring.o(i._ZN6String4initEv) for i._ZN6String4initEv
    wstring.o(i._ZSt6strstrPcPKc) refers to strstr.o(.text) for strstr
    wstring.o(.ARM.exidx) refers to wstring.o(i._ZSt6strstrPcPKc) for i._ZSt6strstrPcPKc
    wire.o(.constdata__ZTV7TwoWire) refers to wire.o(.constdata__ZTI7TwoWire) for typeinfo for TwoWire
    wire.o(.constdata__ZTV7TwoWire) refers to wire.o(.text) for TwoWire::process()
    wire.o(.constdata__ZTI7TwoWire) refers to lib_rtti_impl.o(.constdata__ZTVN10__cxxabiv120__si_class_type_infoE) for vtable for __cxxabiv1::__si_class_type_info
    wire.o(.constdata__ZTI7TwoWire) refers to wire.o(.constdata__ZTS7TwoWire) for typeinfo name for TwoWire
    wire.o(.constdata__ZTI7TwoWire) refers to wirebase.o(.constdata__ZTI8WireBase) for typeinfo for WireBase
    wirebase.o(.constdata__ZTV8WireBase) refers to wirebase.o(.constdata__ZTI8WireBase) for typeinfo for WireBase
    wirebase.o(.constdata__ZTV8WireBase) refers to pure_virt.o(i.__cxa_pure_virtual) for __cxa_pure_virtual
    wirebase.o(.constdata__ZTV8WireBase) refers to wirebase.o(.text) for WireBase::begin(unsigned char)
    wirebase.o(.constdata__ZTI8WireBase) refers to lib_rtti_impl.o(.constdata__ZTVN10__cxxabiv117__class_type_infoE) for vtable for __cxxabiv1::__class_type_info
    wirebase.o(.constdata__ZTI8WireBase) refers to wirebase.o(.constdata__ZTS8WireBase) for typeinfo name for WireBase
    lua_call.o(i._ZNK6StringeqEPKc) refers to wstring.o(.text) for String::equals(const char*) const
    lua_call.o(.ARM.exidx) refers to lua_call.o(i._ZNK6StringeqEPKc) for i._ZNK6StringeqEPKc
    lib_rtti_impl.o(.constdata__ZTVN10__cxxabiv123__fundamental_type_infoE) refers to lib_rtti_impl.o(.constdata__ZTIN10__cxxabiv123__fundamental_type_infoE) for typeinfo for __cxxabiv1::__fundamental_type_info
    lib_rtti_impl.o(.constdata__ZTVN10__cxxabiv123__fundamental_type_infoE) refers to lib_rtti_impl.o(i._ZN10__cxxabiv123__fundamental_type_infoD1Ev) for __cxxabiv1::__fundamental_type_info::~__fundamental_type_info()
    lib_rtti_impl.o(.constdata__ZTVN10__cxxabiv123__fundamental_type_infoE) refers to lib_rtti_impl.o(i._ZN10__cxxabiv123__fundamental_type_infoD0Ev) for __cxxabiv1::__fundamental_type_info::~__fundamental_type_info__deallocating()
    lib_rtti_impl.o(.constdata__ZTVN10__cxxabiv117__array_type_infoE) refers to lib_rtti_impl.o(.constdata__ZTIN10__cxxabiv117__array_type_infoE) for typeinfo for __cxxabiv1::__array_type_info
    lib_rtti_impl.o(.constdata__ZTVN10__cxxabiv117__array_type_infoE) refers to lib_rtti_impl.o(i._ZN10__cxxabiv117__array_type_infoD1Ev) for __cxxabiv1::__array_type_info::~__array_type_info()
    lib_rtti_impl.o(.constdata__ZTVN10__cxxabiv117__array_type_infoE) refers to lib_rtti_impl.o(i._ZN10__cxxabiv117__array_type_infoD0Ev) for __cxxabiv1::__array_type_info::~__array_type_info__deallocating()
    lib_rtti_impl.o(.constdata__ZTVN10__cxxabiv120__function_type_infoE) refers to lib_rtti_impl.o(.constdata__ZTIN10__cxxabiv120__function_type_infoE) for typeinfo for __cxxabiv1::__function_type_info
    lib_rtti_impl.o(.constdata__ZTVN10__cxxabiv120__function_type_infoE) refers to lib_rtti_impl.o(i._ZN10__cxxabiv120__function_type_infoD1Ev) for __cxxabiv1::__function_type_info::~__function_type_info()
    lib_rtti_impl.o(.constdata__ZTVN10__cxxabiv120__function_type_infoE) refers to lib_rtti_impl.o(i._ZN10__cxxabiv120__function_type_infoD0Ev) for __cxxabiv1::__function_type_info::~__function_type_info__deallocating()
    lib_rtti_impl.o(.constdata__ZTVN10__cxxabiv116__enum_type_infoE) refers to lib_rtti_impl.o(.constdata__ZTIN10__cxxabiv116__enum_type_infoE) for typeinfo for __cxxabiv1::__enum_type_info
    lib_rtti_impl.o(.constdata__ZTVN10__cxxabiv116__enum_type_infoE) refers to lib_rtti_impl.o(i._ZN10__cxxabiv116__enum_type_infoD1Ev) for __cxxabiv1::__enum_type_info::~__enum_type_info()
    lib_rtti_impl.o(.constdata__ZTVN10__cxxabiv116__enum_type_infoE) refers to lib_rtti_impl.o(i._ZN10__cxxabiv116__enum_type_infoD0Ev) for __cxxabiv1::__enum_type_info::~__enum_type_info__deallocating()
    lib_rtti_impl.o(.constdata__ZTVN10__cxxabiv117__class_type_infoE) refers to lib_rtti_impl.o(.constdata__ZTIN10__cxxabiv117__class_type_infoE) for typeinfo for __cxxabiv1::__class_type_info
    lib_rtti_impl.o(.constdata__ZTVN10__cxxabiv117__class_type_infoE) refers to lib_rtti_impl.o(i._ZN10__cxxabiv117__class_type_infoD1Ev) for __cxxabiv1::__class_type_info::~__class_type_info()
    lib_rtti_impl.o(.constdata__ZTVN10__cxxabiv117__class_type_infoE) refers to lib_rtti_impl.o(i._ZN10__cxxabiv117__class_type_infoD0Ev) for __cxxabiv1::__class_type_info::~__class_type_info__deallocating()
    lib_rtti_impl.o(.constdata__ZTVN10__cxxabiv120__si_class_type_infoE) refers to lib_rtti_impl.o(.constdata__ZTIN10__cxxabiv120__si_class_type_infoE) for typeinfo for __cxxabiv1::__si_class_type_info
    lib_rtti_impl.o(.constdata__ZTVN10__cxxabiv120__si_class_type_infoE) refers to lib_rtti_impl.o(i._ZN10__cxxabiv120__si_class_type_infoD1Ev) for __cxxabiv1::__si_class_type_info::~__si_class_type_info()
    lib_rtti_impl.o(.constdata__ZTVN10__cxxabiv120__si_class_type_infoE) refers to lib_rtti_impl.o(i._ZN10__cxxabiv120__si_class_type_infoD0Ev) for __cxxabiv1::__si_class_type_info::~__si_class_type_info__deallocating()
    lib_rtti_impl.o(.constdata__ZTVN10__cxxabiv121__vmi_class_type_infoE) refers to lib_rtti_impl.o(.constdata__ZTIN10__cxxabiv121__vmi_class_type_infoE) for typeinfo for __cxxabiv1::__vmi_class_type_info
    lib_rtti_impl.o(.constdata__ZTVN10__cxxabiv121__vmi_class_type_infoE) refers to lib_rtti_impl.o(i._ZN10__cxxabiv121__vmi_class_type_infoD1Ev) for __cxxabiv1::__vmi_class_type_info::~__vmi_class_type_info()
    lib_rtti_impl.o(.constdata__ZTVN10__cxxabiv121__vmi_class_type_infoE) refers to lib_rtti_impl.o(i._ZN10__cxxabiv121__vmi_class_type_infoD0Ev) for __cxxabiv1::__vmi_class_type_info::~__vmi_class_type_info__deallocating()
    lib_rtti_impl.o(.constdata__ZTVN10__cxxabiv117__pbase_type_infoE) refers to lib_rtti_impl.o(.constdata__ZTIN10__cxxabiv117__pbase_type_infoE) for typeinfo for __cxxabiv1::__pbase_type_info
    lib_rtti_impl.o(.constdata__ZTVN10__cxxabiv117__pbase_type_infoE) refers to lib_rtti_impl.o(i._ZN10__cxxabiv117__pbase_type_infoD1Ev) for __cxxabiv1::__pbase_type_info::~__pbase_type_info()
    lib_rtti_impl.o(.constdata__ZTVN10__cxxabiv117__pbase_type_infoE) refers to lib_rtti_impl.o(i._ZN10__cxxabiv117__pbase_type_infoD0Ev) for __cxxabiv1::__pbase_type_info::~__pbase_type_info__deallocating()
    lib_rtti_impl.o(.constdata__ZTVN10__cxxabiv119__pointer_type_infoE) refers to lib_rtti_impl.o(.constdata__ZTIN10__cxxabiv119__pointer_type_infoE) for typeinfo for __cxxabiv1::__pointer_type_info
    lib_rtti_impl.o(.constdata__ZTVN10__cxxabiv119__pointer_type_infoE) refers to lib_rtti_impl.o(i._ZN10__cxxabiv119__pointer_type_infoD1Ev) for __cxxabiv1::__pointer_type_info::~__pointer_type_info()
    lib_rtti_impl.o(.constdata__ZTVN10__cxxabiv119__pointer_type_infoE) refers to lib_rtti_impl.o(i._ZN10__cxxabiv119__pointer_type_infoD0Ev) for __cxxabiv1::__pointer_type_info::~__pointer_type_info__deallocating()
    lib_rtti_impl.o(.constdata__ZTVN10__cxxabiv129__pointer_to_member_type_infoE) refers to lib_rtti_impl.o(.constdata__ZTIN10__cxxabiv129__pointer_to_member_type_infoE) for typeinfo for __cxxabiv1::__pointer_to_member_type_info
    lib_rtti_impl.o(.constdata__ZTVN10__cxxabiv129__pointer_to_member_type_infoE) refers to lib_rtti_impl.o(i._ZN10__cxxabiv129__pointer_to_member_type_infoD1Ev) for __cxxabiv1::__pointer_to_member_type_info::~__pointer_to_member_type_info()
    lib_rtti_impl.o(.constdata__ZTVN10__cxxabiv129__pointer_to_member_type_infoE) refers to lib_rtti_impl.o(i._ZN10__cxxabiv129__pointer_to_member_type_infoD0Ev) for __cxxabiv1::__pointer_to_member_type_info::~__pointer_to_member_type_info__deallocating()
    lib_rtti_impl.o(.ARM.exidx) refers to lib_rtti_impl.o(i._ZNSt9type_infodlEPv) for i._ZNSt9type_infodlEPv
    lib_rtti_impl.o(.constdata__ZTIN10__cxxabiv123__fundamental_type_infoE) refers to lib_rtti_impl.o(.constdata__ZTVN10__cxxabiv120__si_class_type_infoE) for vtable for __cxxabiv1::__si_class_type_info
    lib_rtti_impl.o(.constdata__ZTIN10__cxxabiv123__fundamental_type_infoE) refers to lib_rtti_impl.o(.constdata__ZTSN10__cxxabiv123__fundamental_type_infoE) for typeinfo name for __cxxabiv1::__fundamental_type_info
    lib_rtti_impl.o(.constdata__ZTIN10__cxxabiv123__fundamental_type_infoE) refers to type_info_dtor.o(.constdata__ZTISt9type_info) for typeinfo for std::type_info
    lib_rtti_impl.o(.constdata__ZTIN10__cxxabiv117__array_type_infoE) refers to lib_rtti_impl.o(.constdata__ZTVN10__cxxabiv120__si_class_type_infoE) for vtable for __cxxabiv1::__si_class_type_info
    lib_rtti_impl.o(.constdata__ZTIN10__cxxabiv117__array_type_infoE) refers to lib_rtti_impl.o(.constdata__ZTSN10__cxxabiv117__array_type_infoE) for typeinfo name for __cxxabiv1::__array_type_info
    lib_rtti_impl.o(.constdata__ZTIN10__cxxabiv117__array_type_infoE) refers to type_info_dtor.o(.constdata__ZTISt9type_info) for typeinfo for std::type_info
    lib_rtti_impl.o(.constdata__ZTIN10__cxxabiv120__function_type_infoE) refers to lib_rtti_impl.o(.constdata__ZTVN10__cxxabiv120__si_class_type_infoE) for vtable for __cxxabiv1::__si_class_type_info
    lib_rtti_impl.o(.constdata__ZTIN10__cxxabiv120__function_type_infoE) refers to lib_rtti_impl.o(.constdata__ZTSN10__cxxabiv120__function_type_infoE) for typeinfo name for __cxxabiv1::__function_type_info
    lib_rtti_impl.o(.constdata__ZTIN10__cxxabiv120__function_type_infoE) refers to type_info_dtor.o(.constdata__ZTISt9type_info) for typeinfo for std::type_info
    lib_rtti_impl.o(.constdata__ZTIN10__cxxabiv116__enum_type_infoE) refers to lib_rtti_impl.o(.constdata__ZTVN10__cxxabiv120__si_class_type_infoE) for vtable for __cxxabiv1::__si_class_type_info
    lib_rtti_impl.o(.constdata__ZTIN10__cxxabiv116__enum_type_infoE) refers to lib_rtti_impl.o(.constdata__ZTSN10__cxxabiv116__enum_type_infoE) for typeinfo name for __cxxabiv1::__enum_type_info
    lib_rtti_impl.o(.constdata__ZTIN10__cxxabiv116__enum_type_infoE) refers to type_info_dtor.o(.constdata__ZTISt9type_info) for typeinfo for std::type_info
    lib_rtti_impl.o(.constdata__ZTIN10__cxxabiv117__class_type_infoE) refers to lib_rtti_impl.o(.constdata__ZTVN10__cxxabiv120__si_class_type_infoE) for vtable for __cxxabiv1::__si_class_type_info
    lib_rtti_impl.o(.constdata__ZTIN10__cxxabiv117__class_type_infoE) refers to lib_rtti_impl.o(.constdata__ZTSN10__cxxabiv117__class_type_infoE) for typeinfo name for __cxxabiv1::__class_type_info
    lib_rtti_impl.o(.constdata__ZTIN10__cxxabiv117__class_type_infoE) refers to type_info_dtor.o(.constdata__ZTISt9type_info) for typeinfo for std::type_info
    lib_rtti_impl.o(.constdata__ZTIN10__cxxabiv120__si_class_type_infoE) refers to lib_rtti_impl.o(.constdata__ZTVN10__cxxabiv120__si_class_type_infoE) for vtable for __cxxabiv1::__si_class_type_info
    lib_rtti_impl.o(.constdata__ZTIN10__cxxabiv120__si_class_type_infoE) refers to lib_rtti_impl.o(.constdata__ZTSN10__cxxabiv120__si_class_type_infoE) for typeinfo name for __cxxabiv1::__si_class_type_info
    lib_rtti_impl.o(.constdata__ZTIN10__cxxabiv120__si_class_type_infoE) refers to lib_rtti_impl.o(.constdata__ZTIN10__cxxabiv117__class_type_infoE) for typeinfo for __cxxabiv1::__class_type_info
    lib_rtti_impl.o(.constdata__ZTIN10__cxxabiv121__vmi_class_type_infoE) refers to lib_rtti_impl.o(.constdata__ZTVN10__cxxabiv120__si_class_type_infoE) for vtable for __cxxabiv1::__si_class_type_info
    lib_rtti_impl.o(.constdata__ZTIN10__cxxabiv121__vmi_class_type_infoE) refers to lib_rtti_impl.o(.constdata__ZTSN10__cxxabiv121__vmi_class_type_infoE) for typeinfo name for __cxxabiv1::__vmi_class_type_info
    lib_rtti_impl.o(.constdata__ZTIN10__cxxabiv121__vmi_class_type_infoE) refers to lib_rtti_impl.o(.constdata__ZTIN10__cxxabiv117__class_type_infoE) for typeinfo for __cxxabiv1::__class_type_info
    lib_rtti_impl.o(.constdata__ZTIN10__cxxabiv117__pbase_type_infoE) refers to lib_rtti_impl.o(.constdata__ZTVN10__cxxabiv120__si_class_type_infoE) for vtable for __cxxabiv1::__si_class_type_info
    lib_rtti_impl.o(.constdata__ZTIN10__cxxabiv117__pbase_type_infoE) refers to lib_rtti_impl.o(.constdata__ZTSN10__cxxabiv117__pbase_type_infoE) for typeinfo name for __cxxabiv1::__pbase_type_info
    lib_rtti_impl.o(.constdata__ZTIN10__cxxabiv117__pbase_type_infoE) refers to type_info_dtor.o(.constdata__ZTISt9type_info) for typeinfo for std::type_info
    lib_rtti_impl.o(.constdata__ZTIN10__cxxabiv119__pointer_type_infoE) refers to lib_rtti_impl.o(.constdata__ZTVN10__cxxabiv120__si_class_type_infoE) for vtable for __cxxabiv1::__si_class_type_info
    lib_rtti_impl.o(.constdata__ZTIN10__cxxabiv119__pointer_type_infoE) refers to lib_rtti_impl.o(.constdata__ZTSN10__cxxabiv119__pointer_type_infoE) for typeinfo name for __cxxabiv1::__pointer_type_info
    lib_rtti_impl.o(.constdata__ZTIN10__cxxabiv119__pointer_type_infoE) refers to lib_rtti_impl.o(.constdata__ZTIN10__cxxabiv117__pbase_type_infoE) for typeinfo for __cxxabiv1::__pbase_type_info
    lib_rtti_impl.o(.constdata__ZTIN10__cxxabiv129__pointer_to_member_type_infoE) refers to lib_rtti_impl.o(.constdata__ZTVN10__cxxabiv120__si_class_type_infoE) for vtable for __cxxabiv1::__si_class_type_info
    lib_rtti_impl.o(.constdata__ZTIN10__cxxabiv129__pointer_to_member_type_infoE) refers to lib_rtti_impl.o(.constdata__ZTSN10__cxxabiv129__pointer_to_member_type_infoE) for typeinfo name for __cxxabiv1::__pointer_to_member_type_info
    lib_rtti_impl.o(.constdata__ZTIN10__cxxabiv129__pointer_to_member_type_infoE) refers to lib_rtti_impl.o(.constdata__ZTIN10__cxxabiv117__pbase_type_infoE) for typeinfo for __cxxabiv1::__pbase_type_info
    lib_rtti_impl.o(i.__ARM_common_noexcept_landing) refers to arm_exceptions_callterm.o(.text) for __cxa_call_terminate
    lib_rtti_impl.o(.ARM.exidx) refers to lib_rtti_impl.o(i.__ARM_common_noexcept_landing) for i.__ARM_common_noexcept_landing
    bad_alloc_dtor.o(.constdata__ZTVSt9bad_alloc) refers to bad_alloc_dtor.o(.constdata__ZTISt9bad_alloc) for typeinfo for std::bad_alloc
    bad_alloc_dtor.o(.constdata__ZTVSt9bad_alloc) refers to bad_alloc_dtor.o(i._ZNSt9bad_allocD1Ev) for std::bad_alloc::~bad_alloc()
    bad_alloc_dtor.o(.constdata__ZTVSt9bad_alloc) refers to bad_alloc_dtor.o(i._ZNSt9bad_allocD0Ev) for std::bad_alloc::~bad_alloc__deallocating()
    bad_alloc_dtor.o(.constdata__ZTVSt9bad_alloc) refers to bad_alloc_what.o(i._ZNKSt9bad_alloc4whatEv) for std::bad_alloc::what() const
    bad_alloc_dtor.o(.constdata__ZTISt9bad_alloc) refers to lib_rtti_impl.o(.constdata__ZTVN10__cxxabiv120__si_class_type_infoE) for vtable for __cxxabiv1::__si_class_type_info
    bad_alloc_dtor.o(.constdata__ZTISt9bad_alloc) refers to bad_alloc_dtor.o(.constdata__ZTSSt9bad_alloc) for typeinfo name for std::bad_alloc
    bad_alloc_dtor.o(.constdata__ZTISt9bad_alloc) refers to exception_dtor.o(.constdata__ZTISt9exception) for typeinfo for std::exception
    type_info_dtor.o(.constdata__ZTVSt9type_info) refers to type_info_dtor.o(.constdata__ZTISt9type_info) for typeinfo for std::type_info
    type_info_dtor.o(.constdata__ZTVSt9type_info) refers to type_info_dtor.o(i._ZNSt9type_infoD1Ev) for std::type_info::~type_info()
    type_info_dtor.o(.constdata__ZTVSt9type_info) refers to type_info_dtor.o(i._ZNSt9type_infoD0Ev) for std::type_info::~type_info__deallocating()
    type_info_dtor.o(.constdata__ZTISt9type_info) refers to lib_rtti_impl.o(.constdata__ZTVN10__cxxabiv117__class_type_infoE) for vtable for __cxxabiv1::__class_type_info
    type_info_dtor.o(.constdata__ZTISt9type_info) refers to type_info_dtor.o(.constdata__ZTSSt9type_info) for typeinfo name for std::type_info
    exception_dtor.o(.constdata__ZTVSt9exception) refers to exception_dtor.o(.constdata__ZTISt9exception) for typeinfo for std::exception
    exception_dtor.o(.constdata__ZTVSt9exception) refers to exception_dtor.o(i._ZNSt9exceptionD1Ev) for std::exception::~exception()
    exception_dtor.o(.constdata__ZTVSt9exception) refers to exception_dtor.o(i._ZNSt9exceptionD0Ev) for std::exception::~exception__deallocating()
    exception_dtor.o(.constdata__ZTVSt9exception) refers to exception_what.o(i._ZNKSt9exception4whatEv) for std::exception::what() const
    exception_dtor.o(.constdata__ZTISt9exception) refers to lib_rtti_impl.o(.constdata__ZTVN10__cxxabiv117__class_type_infoE) for vtable for __cxxabiv1::__class_type_info
    exception_dtor.o(.constdata__ZTISt9exception) refers to exception_dtor.o(.constdata__ZTSSt9exception) for typeinfo name for std::exception
    scanf_fp.o(i._is_digit) refers (Special) to iusefp.o(.text) for __I$use$fp


==============================================================================

Removing Unused input sections from the image.

    Removing arduino.o(.rev16_text), (4 bytes).
    Removing arduino.o(.revsh_text), (4 bytes).
    Removing arduino.o(.rrx_text), (6 bytes).
    Removing print.o(.ARM.exidx), (8 bytes).
    Removing hardwareserial.o(.rev16_text), (4 bytes).
    Removing hardwareserial.o(.revsh_text), (4 bytes).
    Removing hardwareserial.o(.rrx_text), (6 bytes).
    Removing hardwareserial.o(.ARM.exidx), (8 bytes).
    Removing stream.o(.rev16_text), (4 bytes).
    Removing stream.o(.revsh_text), (4 bytes).
    Removing stream.o(.rrx_text), (6 bytes).
    Removing stream.o(.ARM.exidx), (8 bytes).
    Removing wstring.o(.ARM.exidx), (8 bytes).
    Removing wire.o(.rev16_text), (4 bytes).
    Removing wire.o(.revsh_text), (4 bytes).
    Removing wire.o(.rrx_text), (6 bytes).
    Removing wire.o(.ARM.exidx), (8 bytes).
    Removing wirebase.o(.rev16_text), (4 bytes).
    Removing wirebase.o(.revsh_text), (4 bytes).
    Removing wirebase.o(.rrx_text), (6 bytes).
    Removing wirebase.o(.text), (420 bytes).
    Removing wirebase.o(.ARM.exidx), (8 bytes).
    Removing spi.o(.rev16_text), (4 bytes).
    Removing spi.o(.revsh_text), (4 bytes).
    Removing spi.o(.rrx_text), (6 bytes).
    Removing spi.o(.ARM.exidx), (8 bytes).
    Removing lbitlib.o(.text), (52 bytes).
    Removing loslib.o(.rev16_text), (4 bytes).
    Removing loslib.o(.revsh_text), (4 bytes).
    Removing loslib.o(.rrx_text), (6 bytes).
    Removing delay.o(.rev16_text), (4 bytes).
    Removing delay.o(.revsh_text), (4 bytes).
    Removing delay.o(.rrx_text), (6 bytes).
    Removing exti.o(.rev16_text), (4 bytes).
    Removing exti.o(.revsh_text), (4 bytes).
    Removing exti.o(.rrx_text), (6 bytes).
    Removing gpio.o(.rev16_text), (4 bytes).
    Removing gpio.o(.revsh_text), (4 bytes).
    Removing gpio.o(.rrx_text), (6 bytes).
    Removing adc.o(.rev16_text), (4 bytes).
    Removing adc.o(.revsh_text), (4 bytes).
    Removing adc.o(.rrx_text), (6 bytes).
    Removing pwm.o(.rev16_text), (4 bytes).
    Removing pwm.o(.revsh_text), (4 bytes).
    Removing pwm.o(.rrx_text), (6 bytes).
    Removing usart.o(.rev16_text), (4 bytes).
    Removing usart.o(.revsh_text), (4 bytes).
    Removing usart.o(.rrx_text), (6 bytes).
    Removing time_exti.o(.rev16_text), (4 bytes).
    Removing time_exti.o(.revsh_text), (4 bytes).
    Removing time_exti.o(.rrx_text), (6 bytes).
    Removing main.o(.rev16_text), (4 bytes).
    Removing main.o(.revsh_text), (4 bytes).
    Removing main.o(.rrx_text), (6 bytes).
    Removing main.o(.ARM.exidx), (8 bytes).
    Removing lua_call.o(.rev16_text), (4 bytes).
    Removing lua_call.o(.revsh_text), (4 bytes).
    Removing lua_call.o(.rrx_text), (6 bytes).
    Removing lua_call.o(.ARM.exidx), (8 bytes).
    Removing misc.o(.rev16_text), (4 bytes).
    Removing misc.o(.revsh_text), (4 bytes).
    Removing misc.o(.rrx_text), (6 bytes).
    Removing stm32f10x_adc.o(.rev16_text), (4 bytes).
    Removing stm32f10x_adc.o(.revsh_text), (4 bytes).
    Removing stm32f10x_adc.o(.rrx_text), (6 bytes).
    Removing stm32f10x_dma.o(.rev16_text), (4 bytes).
    Removing stm32f10x_dma.o(.revsh_text), (4 bytes).
    Removing stm32f10x_dma.o(.rrx_text), (6 bytes).
    Removing stm32f10x_exti.o(.rev16_text), (4 bytes).
    Removing stm32f10x_exti.o(.revsh_text), (4 bytes).
    Removing stm32f10x_exti.o(.rrx_text), (6 bytes).
    Removing stm32f10x_gpio.o(.rev16_text), (4 bytes).
    Removing stm32f10x_gpio.o(.revsh_text), (4 bytes).
    Removing stm32f10x_gpio.o(.rrx_text), (6 bytes).
    Removing stm32f10x_rcc.o(.rev16_text), (4 bytes).
    Removing stm32f10x_rcc.o(.revsh_text), (4 bytes).
    Removing stm32f10x_rcc.o(.rrx_text), (6 bytes).
    Removing stm32f10x_spi.o(.rev16_text), (4 bytes).
    Removing stm32f10x_spi.o(.revsh_text), (4 bytes).
    Removing stm32f10x_spi.o(.rrx_text), (6 bytes).
    Removing stm32f10x_tim.o(.rev16_text), (4 bytes).
    Removing stm32f10x_tim.o(.revsh_text), (4 bytes).
    Removing stm32f10x_tim.o(.rrx_text), (6 bytes).
    Removing stm32f10x_usart.o(.rev16_text), (4 bytes).
    Removing stm32f10x_usart.o(.revsh_text), (4 bytes).
    Removing stm32f10x_usart.o(.rrx_text), (6 bytes).
    Removing system_stm32f10x.o(.rev16_text), (4 bytes).
    Removing system_stm32f10x.o(.revsh_text), (4 bytes).
    Removing system_stm32f10x.o(.rrx_text), (6 bytes).
    Removing print.o(.constdata__ZTI5Print), (8 bytes).
    Removing print.o(.constdata__ZTS5Print), (7 bytes).
    Removing hardwareserial.o(.constdata__ZTI14HardwareSerial), (12 bytes).
    Removing hardwareserial.o(.constdata__ZTI6Stream), (12 bytes).
    Removing hardwareserial.o(.constdata__ZTS14HardwareSerial), (17 bytes).
    Removing hardwareserial.o(.constdata__ZTS6Stream), (8 bytes).
    Removing stream.o(.ARM.exidx), (8 bytes).
    Removing wstring.o(.ARM.exidx), (8 bytes).
    Removing wstring.o(.ARM.exidx), (8 bytes).
    Removing wstring.o(.ARM.exidx), (8 bytes).
    Removing wire.o(.constdata__ZTI7TwoWire), (12 bytes).
    Removing wire.o(.constdata__ZTS7TwoWire), (9 bytes).
    Removing wirebase.o(.constdata__ZTI8WireBase), (8 bytes).
    Removing wirebase.o(.constdata__ZTS8WireBase), (10 bytes).
    Removing lua_call.o(.ARM.exidx), (8 bytes).

104 unused section(s) (total 1051 bytes) removed from the image.

==============================================================================

Image Symbol Table

    Local Symbols

    Symbol Name                              Value     Ov Type        Size  Object(Section)

    ../../../clib/unwind_pr.c                0x00000000   Number         0  unwind_prcommon.o ABSOLUTE
    ../../../clib/unwind_pr.c                0x00000000   Number         0  unwind_pr0.o ABSOLUTE
    ../../../clib/unwinder.c                 0x00000000   Number         0  unwinder.o ABSOLUTE
    ../../../clib/unwinder.c                 0x00000000   Number         0  unwinder.o ABSOLUTE
    ../../../clib/unwinder.c                 0x00000000   Number         0  unwind_activity.o ABSOLUTE
    ../../../clib/unwinder.c                 0x00000000   Number         0  unwind_activity.o ABSOLUTE
    ../../../edgfe/lib_src/arm_exceptions.c  0x00000000   Number         0  arm_exceptions_globs.o ABSOLUTE
    ../../../edgfe/lib_src/arm_exceptions.c  0x00000000   Number         0  arm_exceptions_support.o ABSOLUTE
    ../../../edgfe/lib_src/arm_exceptions.c  0x00000000   Number         0  arm_exceptions_terminate.o ABSOLUTE
    ../../../edgfe/lib_src/arm_exceptions.c  0x00000000   Number         0  arm_exceptions_callterm.o ABSOLUTE
    ../../../edgfe/lib_src/arm_exceptions.c  0x00000000   Number         0  arm_exceptions_mem.o ABSOLUTE
    ../../../edgfe/lib_src/arm_noexceptions.c 0x00000000   Number         0  arm_callunex_noexceptions.o ABSOLUTE
    ../../../edgfe/lib_src/arm_noexceptions.c 0x00000000   Number         0  arm_newhandler_noexceptions.o ABSOLUTE
    ../../../edgfe/lib_src/arm_noexceptions.c 0x00000000   Number         0  arm_begincatch_noexceptions.o ABSOLUTE
    ../../../edgfe/lib_src/array_del.c       0x00000000   Number         0  array_del.o ABSOLUTE
    ../../../edgfe/lib_src/array_new.c       0x00000000   Number         0  array_new.o ABSOLUTE
    ../../../edgfe/lib_src/bad_alloc.c       0x00000000   Number         0  bad_alloc_what.o ABSOLUTE
    ../../../edgfe/lib_src/bad_alloc.c       0x00000000   Number         0  bad_alloc_dtor.o ABSOLUTE
    ../../../edgfe/lib_src/delete.c          0x00000000   Number         0  delete.o ABSOLUTE
    ../../../edgfe/lib_src/exception.c       0x00000000   Number         0  exception_dtor.o ABSOLUTE
    ../../../edgfe/lib_src/exception.c       0x00000000   Number         0  exception_what.o ABSOLUTE
    ../../../edgfe/lib_src/new.c             0x00000000   Number         0  new.o ABSOLUTE
    ../../../edgfe/lib_src/pure_virt.c       0x00000000   Number         0  pure_virt.o ABSOLUTE
    ../../../edgfe/lib_src/typeinfo.c        0x00000000   Number         0  type_info_dtor.o ABSOLUTE
    ../../../edgfe/lib_src/typeinfo.c        0x00000000   Number         0  lib_rtti_impl.o ABSOLUTE
    ../clib/microlib/cpp/cpp_dtor.c          0x00000000   Number         0  cpp_dtor.o ABSOLUTE
    ../clib/microlib/cpp/cpp_final.c         0x00000000   Number         0  cpp_final.o ABSOLUTE
    ../clib/microlib/cpp/cpp_init.c          0x00000000   Number         0  cpp_init.o ABSOLUTE
    ../clib/microlib/cpp/cpp_init.c          0x00000000   Number         0  cpp_init.o ABSOLUTE
    ../clib/microlib/cpp/cpp_memory.c        0x00000000   Number         0  cpp_memory.o ABSOLUTE
    ../clib/microlib/cpp/cpp_signal.c        0x00000000   Number         0  cpp_signal.o ABSOLUTE
    ../clib/microlib/ctype/ctype.c           0x00000000   Number         0  isspace_o.o ABSOLUTE
    ../clib/microlib/ctype/ctype.c           0x00000000   Number         0  ispunct_o.o ABSOLUTE
    ../clib/microlib/ctype/ctype.c           0x00000000   Number         0  islower_o.o ABSOLUTE
    ../clib/microlib/ctype/ctype.c           0x00000000   Number         0  isgraph_o.o ABSOLUTE
    ../clib/microlib/ctype/ctype.c           0x00000000   Number         0  isdigit_o.o ABSOLUTE
    ../clib/microlib/ctype/ctype.c           0x00000000   Number         0  iscntrl_o.o ABSOLUTE
    ../clib/microlib/ctype/ctype.c           0x00000000   Number         0  isblank_o.o ABSOLUTE
    ../clib/microlib/ctype/ctype.c           0x00000000   Number         0  isalpha_o.o ABSOLUTE
    ../clib/microlib/ctype/ctype.c           0x00000000   Number         0  isalnum_o.o ABSOLUTE
    ../clib/microlib/ctype/ctype.c           0x00000000   Number         0  isxdigit_o.o ABSOLUTE
    ../clib/microlib/ctype/ctype.c           0x00000000   Number         0  ctype_o.o ABSOLUTE
    ../clib/microlib/ctype/ctype.c           0x00000000   Number         0  isprint_o.o ABSOLUTE
    ../clib/microlib/ctype/ctype.c           0x00000000   Number         0  isupper_o.o ABSOLUTE
    ../clib/microlib/ctype/tolower.c         0x00000000   Number         0  tolower.o ABSOLUTE
    ../clib/microlib/ctype/toupper.c         0x00000000   Number         0  toupper.o ABSOLUTE
    ../clib/microlib/division.c              0x00000000   Number         0  uidiv.o ABSOLUTE
    ../clib/microlib/division.c              0x00000000   Number         0  uldiv.o ABSOLUTE
    ../clib/microlib/errno.c                 0x00000000   Number         0  errno.o ABSOLUTE
    ../clib/microlib/init/entry.s            0x00000000   Number         0  entry11a.o ABSOLUTE
    ../clib/microlib/init/entry.s            0x00000000   Number         0  entry10b.o ABSOLUTE
    ../clib/microlib/init/entry.s            0x00000000   Number         0  entry10a.o ABSOLUTE
    ../clib/microlib/init/entry.s            0x00000000   Number         0  entry9b.o ABSOLUTE
    ../clib/microlib/init/entry.s            0x00000000   Number         0  entry9a.o ABSOLUTE
    ../clib/microlib/init/entry.s            0x00000000   Number         0  entry8b.o ABSOLUTE
    ../clib/microlib/init/entry.s            0x00000000   Number         0  entry8a.o ABSOLUTE
    ../clib/microlib/init/entry.s            0x00000000   Number         0  entry7a.o ABSOLUTE
    ../clib/microlib/init/entry.s            0x00000000   Number         0  entry5.o ABSOLUTE
    ../clib/microlib/init/entry.s            0x00000000   Number         0  entry2.o ABSOLUTE
    ../clib/microlib/init/entry.s            0x00000000   Number         0  entry.o ABSOLUTE
    ../clib/microlib/init/entry.s            0x00000000   Number         0  entry7b.o ABSOLUTE
    ../clib/microlib/init/entry.s            0x00000000   Number         0  entry11b.o ABSOLUTE
    ../clib/microlib/locale/ilconv.c         0x00000000   Number         0  ilconv.o ABSOLUTE
    ../clib/microlib/locale/localeconv.c     0x00000000   Number         0  localeconv.o ABSOLUTE
    ../clib/microlib/locale/setlocale.c      0x00000000   Number         0  setlocale.o ABSOLUTE
    ../clib/microlib/longlong.c              0x00000000   Number         0  llsshr.o ABSOLUTE
    ../clib/microlib/longlong.c              0x00000000   Number         0  llushr.o ABSOLUTE
    ../clib/microlib/longlong.c              0x00000000   Number         0  llshl.o ABSOLUTE
    ../clib/microlib/malloc/malloc.c         0x00000000   Number         0  malloc.o ABSOLUTE
    ../clib/microlib/malloc/malloc.c         0x00000000   Number         0  mallocr.o ABSOLUTE
    ../clib/microlib/malloc/malloc.c         0x00000000   Number         0  malloca.o ABSOLUTE
    ../clib/microlib/malloc/malloc.c         0x00000000   Number         0  mallocra.o ABSOLUTE
    ../clib/microlib/malloc/mvars.c          0x00000000   Number         0  mvars.o ABSOLUTE
    ../clib/microlib/printf/printf.c         0x00000000   Number         0  printf5.o ABSOLUTE
    ../clib/microlib/printf/printf.c         0x00000000   Number         0  printf1.o ABSOLUTE
    ../clib/microlib/printf/printf.c         0x00000000   Number         0  printf0.o ABSOLUTE
    ../clib/microlib/printf/printf.c         0x00000000   Number         0  printfa.o ABSOLUTE
    ../clib/microlib/printf/printf.c         0x00000000   Number         0  printf2.o ABSOLUTE
    ../clib/microlib/printf/printf.c         0x00000000   Number         0  printf6.o ABSOLUTE
    ../clib/microlib/printf/printf.c         0x00000000   Number         0  printf7.o ABSOLUTE
    ../clib/microlib/printf/printf.c         0x00000000   Number         0  printf8.o ABSOLUTE
    ../clib/microlib/printf/printf.c         0x00000000   Number         0  printf4.o ABSOLUTE
    ../clib/microlib/printf/printf.c         0x00000000   Number         0  printf3.o ABSOLUTE
    ../clib/microlib/printf/printf.c         0x00000000   Number         0  printfb.o ABSOLUTE
    ../clib/microlib/printf/stubs.s          0x00000000   Number         0  stubs.o ABSOLUTE
    ../clib/microlib/stdio/clearerr.c        0x00000000   Number         0  clearerr.o ABSOLUTE
    ../clib/microlib/stdio/fclose.c          0x00000000   Number         0  fclose.o ABSOLUTE
    ../clib/microlib/stdio/feof.c            0x00000000   Number         0  feof.o ABSOLUTE
    ../clib/microlib/stdio/ferror.c          0x00000000   Number         0  ferror.o ABSOLUTE
    ../clib/microlib/stdio/fflush.c          0x00000000   Number         0  fflush.o ABSOLUTE
    ../clib/microlib/stdio/fgetc.c           0x00000000   Number         0  fgetc_b.o ABSOLUTE
    ../clib/microlib/stdio/fgetc.c           0x00000000   Number         0  fgetc_u.o ABSOLUTE
    ../clib/microlib/stdio/fgetc.c           0x00000000   Number         0  fgetc_ub.o ABSOLUTE
    ../clib/microlib/stdio/fgetc.c           0x00000000   Number         0  fgetc.o ABSOLUTE
    ../clib/microlib/stdio/fgets.c           0x00000000   Number         0  fgets.o ABSOLUTE
    ../clib/microlib/stdio/fopen.c           0x00000000   Number         0  fopen.o ABSOLUTE
    ../clib/microlib/stdio/fputc.c           0x00000000   Number         0  fputc.o ABSOLUTE
    ../clib/microlib/stdio/fread.c           0x00000000   Number         0  fread.o ABSOLUTE
    ../clib/microlib/stdio/freopen.c         0x00000000   Number         0  freopen.o ABSOLUTE
    ../clib/microlib/stdio/fseek.c           0x00000000   Number         0  fseek.o ABSOLUTE
    ../clib/microlib/stdio/ftell.c           0x00000000   Number         0  ftell.o ABSOLUTE
    ../clib/microlib/stdio/fwrite.c          0x00000000   Number         0  fwrite.o ABSOLUTE
    ../clib/microlib/stdio/fwrite.c          0x00000000   Number         0  fwrite_e.o ABSOLUTE
    ../clib/microlib/stdio/getc.c            0x00000000   Number         0  getc.o ABSOLUTE
    ../clib/microlib/stdio/remove.c          0x00000000   Number         0  remove.o ABSOLUTE
    ../clib/microlib/stdio/rename.c          0x00000000   Number         0  rename.o ABSOLUTE
    ../clib/microlib/stdio/semi.s            0x00000000   Number         0  semi.o ABSOLUTE
    ../clib/microlib/stdio/setvbuf.c         0x00000000   Number         0  setvbuf.o ABSOLUTE
    ../clib/microlib/stdio/streams.c         0x00000000   Number         0  stdout.o ABSOLUTE
    ../clib/microlib/stdio/streams.c         0x00000000   Number         0  stderr.o ABSOLUTE
    ../clib/microlib/stdio/streams.c         0x00000000   Number         0  stdin.o ABSOLUTE
    ../clib/microlib/stdio/tmpfile.c         0x00000000   Number         0  tmpfile.o ABSOLUTE
    ../clib/microlib/stdio/tmpnam.c          0x00000000   Number         0  tmpnam.o ABSOLUTE
    ../clib/microlib/stdlib/abort.c          0x00000000   Number         0  abort.o ABSOLUTE
    ../clib/microlib/stdlib/bsearch.c        0x00000000   Number         0  bsearch.o ABSOLUTE
    ../clib/microlib/stdlib/getenv.c         0x00000000   Number         0  getenv.o ABSOLUTE
    ../clib/microlib/stdlib/rand.c           0x00000000   Number         0  rand.o ABSOLUTE
    ../clib/microlib/string/memchr.c         0x00000000   Number         0  memchr.o ABSOLUTE
    ../clib/microlib/string/memcmp.c         0x00000000   Number         0  memcmp.o ABSOLUTE
    ../clib/microlib/string/memcpy.c         0x00000000   Number         0  memcpyb.o ABSOLUTE
    ../clib/microlib/string/memcpy.c         0x00000000   Number         0  memmoveb.o ABSOLUTE
    ../clib/microlib/string/memcpy.c         0x00000000   Number         0  memcpya.o ABSOLUTE
    ../clib/microlib/string/memcpy.c         0x00000000   Number         0  memmovea.o ABSOLUTE
    ../clib/microlib/string/strchr.c         0x00000000   Number         0  strchr.o ABSOLUTE
    ../clib/microlib/string/strcmp.c         0x00000000   Number         0  strcmp.o ABSOLUTE
    ../clib/microlib/string/strcoll.c        0x00000000   Number         0  strcoll.o ABSOLUTE
    ../clib/microlib/string/strcpy.c         0x00000000   Number         0  strcpy.o ABSOLUTE
    ../clib/microlib/string/strerror.c       0x00000000   Number         0  strerror.o ABSOLUTE
    ../clib/microlib/string/strlen.c         0x00000000   Number         0  strlen.o ABSOLUTE
    ../clib/microlib/string/strncmp.c        0x00000000   Number         0  strncmp.o ABSOLUTE
    ../clib/microlib/string/strncpy.c        0x00000000   Number         0  strncpy.o ABSOLUTE
    ../clib/microlib/string/strpbrk.c        0x00000000   Number         0  strpbrk.o ABSOLUTE
    ../clib/microlib/string/strrchr.c        0x00000000   Number         0  strrchr.o ABSOLUTE
    ../clib/microlib/string/strspn.c         0x00000000   Number         0  strspn.o ABSOLUTE
    ../clib/microlib/string/strstr.c         0x00000000   Number         0  strstr.o ABSOLUTE
    ../clib/microlib/stubs.s                 0x00000000   Number         0  iusesemig.o ABSOLUTE
    ../clib/microlib/stubs.s                 0x00000000   Number         0  iusesemip.o ABSOLUTE
    ../clib/microlib/stubs.s                 0x00000000   Number         0  iusefp.o ABSOLUTE
    ../clib/microlib/time/asctime.c          0x00000000   Number         0  asctime_s.o ABSOLUTE
    ../clib/microlib/time/clock.c            0x00000000   Number         0  clock.o ABSOLUTE
    ../clib/microlib/time/gmtime.c           0x00000000   Number         0  gmtime.o ABSOLUTE
    ../clib/microlib/time/localtime.c        0x00000000   Number         0  localtime.o ABSOLUTE
    ../clib/microlib/time/localtime.c        0x00000000   Number         0  localtime_i.o ABSOLUTE
    ../clib/microlib/time/localtime.c        0x00000000   Number         0  localtime_w.o ABSOLUTE
    ../clib/microlib/time/mktime.c           0x00000000   Number         0  mktime.o ABSOLUTE
    ../clib/microlib/time/strftime.c         0x00000000   Number         0  strftime.o ABSOLUTE
    ../clib/scanf.c                          0x00000000   Number         0  strtod.o ABSOLUTE
    ../clib/scanf.c                          0x00000000   Number         0  strtof.o ABSOLUTE
    ../clib/scanf.c                          0x00000000   Number         0  strtol.o ABSOLUTE
    ../clib/scanf.c                          0x00000000   Number         0  _chval.o ABSOLUTE
    ../clib/scanf.c                          0x00000000   Number         0  scanf_fp.o ABSOLUTE
    ../clib/scanf.c                          0x00000000   Number         0  _sgetc.o ABSOLUTE
    ../clib/scanf.c                          0x00000000   Number         0  _strtoul.o ABSOLUTE
    ../clib/scanf.c                          0x00000000   Number         0  atol.o ABSOLUTE
    ../clib/stdlib.c                         0x00000000   Number         0  aeabi_atexit.o ABSOLUTE
    ../clib/stdlib.c                         0x00000000   Number         0  cxa_finalize.o ABSOLUTE
    ../fplib/microlib/d2f.c                  0x00000000   Number         0  d2f.o ABSOLUTE
    ../fplib/microlib/f2d.c                  0x00000000   Number         0  f2d.o ABSOLUTE
    ../fplib/microlib/fpadd.c                0x00000000   Number         0  fadd.o ABSOLUTE
    ../fplib/microlib/fpadd.c                0x00000000   Number         0  dadd.o ABSOLUTE
    ../fplib/microlib/fpdiv.c                0x00000000   Number         0  fdiv.o ABSOLUTE
    ../fplib/microlib/fpdiv.c                0x00000000   Number         0  ddiv.o ABSOLUTE
    ../fplib/microlib/fpepilogue.c           0x00000000   Number         0  fepilogue.o ABSOLUTE
    ../fplib/microlib/fpepilogue.c           0x00000000   Number         0  depilogue.o ABSOLUTE
    ../fplib/microlib/fpfix.c                0x00000000   Number         0  dfixul.o ABSOLUTE
    ../fplib/microlib/fpfix.c                0x00000000   Number         0  ffixi.o ABSOLUTE
    ../fplib/microlib/fpfix.c                0x00000000   Number         0  ffixui.o ABSOLUTE
    ../fplib/microlib/fpfix.c                0x00000000   Number         0  dfixl.o ABSOLUTE
    ../fplib/microlib/fpfix.c                0x00000000   Number         0  dfixi.o ABSOLUTE
    ../fplib/microlib/fpfix.c                0x00000000   Number         0  ffixir.o ABSOLUTE
    ../fplib/microlib/fpflt.c                0x00000000   Number         0  dfltul.o ABSOLUTE
    ../fplib/microlib/fpflt.c                0x00000000   Number         0  dfltui.o ABSOLUTE
    ../fplib/microlib/fpflt.c                0x00000000   Number         0  fflti.o ABSOLUTE
    ../fplib/microlib/fpflt.c                0x00000000   Number         0  ffltui.o ABSOLUTE
    ../fplib/microlib/fpflt.c                0x00000000   Number         0  dflti.o ABSOLUTE
    ../fplib/microlib/fpflt.c                0x00000000   Number         0  dfltl.o ABSOLUTE
    ../fplib/microlib/fpmul.c                0x00000000   Number         0  dmul.o ABSOLUTE
    ../fplib/microlib/fpmul.c                0x00000000   Number         0  fmul.o ABSOLUTE
    ../fplib/microlib/fprem.c                0x00000000   Number         0  frem.o ABSOLUTE
    ../fplib/microlib/fprnd.c                0x00000000   Number         0  frnd.o ABSOLUTE
    ../fplib/microlib/fpscalb.c              0x00000000   Number         0  dscalb.o ABSOLUTE
    ../fplib/microlib/fpscalb.c              0x00000000   Number         0  fscalb.o ABSOLUTE
    ../fplib/microlib/fpsqrt.c               0x00000000   Number         0  fsqrt.o ABSOLUTE
    ../fplib/microlib/fpstat.c               0x00000000   Number         0  fpstat.o ABSOLUTE
    ../fplib/setjmp.s                        0x00000000   Number         0  setjmp.o ABSOLUTE
    ../mathlib/acosf.c                       0x00000000   Number         0  acosf.o ABSOLUTE
    ../mathlib/acosf.c                       0x00000000   Number         0  acosf_x.o ABSOLUTE
    ../mathlib/asinf.c                       0x00000000   Number         0  asinf_x.o ABSOLUTE
    ../mathlib/asinf.c                       0x00000000   Number         0  asinf.o ABSOLUTE
    ../mathlib/atan2f.c                      0x00000000   Number         0  atan2f.o ABSOLUTE
    ../mathlib/atan2f.c                      0x00000000   Number         0  atan2f_x.o ABSOLUTE
    ../mathlib/atof.c                        0x00000000   Number         0  atof.o ABSOLUTE
    ../mathlib/ceilf.c                       0x00000000   Number         0  ceilf.o ABSOLUTE
    ../mathlib/cosf.c                        0x00000000   Number         0  cosf_x.o ABSOLUTE
    ../mathlib/cosf.c                        0x00000000   Number         0  cosf.o ABSOLUTE
    ../mathlib/difftime.c                    0x00000000   Number         0  difftime.o ABSOLUTE
    ../mathlib/expf.c                        0x00000000   Number         0  expf_x.o ABSOLUTE
    ../mathlib/expf.c                        0x00000000   Number         0  expf.o ABSOLUTE
    ../mathlib/floorf.c                      0x00000000   Number         0  floorf.o ABSOLUTE
    ../mathlib/fmodf.c                       0x00000000   Number         0  fmodf_x.o ABSOLUTE
    ../mathlib/fmodf.c                       0x00000000   Number         0  fmodf.o ABSOLUTE
    ../mathlib/fpclassifyf.c                 0x00000000   Number         0  fpclassifyf.o ABSOLUTE
    ../mathlib/frexp.c                       0x00000000   Number         0  frexp.o ABSOLUTE
    ../mathlib/frexpf.c                      0x00000000   Number         0  frexpf.o ABSOLUTE
    ../mathlib/funder.c                      0x00000000   Number         0  funder.o ABSOLUTE
    ../mathlib/log10f.c                      0x00000000   Number         0  log10f.o ABSOLUTE
    ../mathlib/log10f.c                      0x00000000   Number         0  log10f_x.o ABSOLUTE
    ../mathlib/log2f.c                       0x00000000   Number         0  log2f.o ABSOLUTE
    ../mathlib/log2f.c                       0x00000000   Number         0  log2f_x.o ABSOLUTE
    ../mathlib/logf.c                        0x00000000   Number         0  logf_x.o ABSOLUTE
    ../mathlib/logf.c                        0x00000000   Number         0  logf.o ABSOLUTE
    ../mathlib/narrow.c                      0x00000000   Number         0  narrow.o ABSOLUTE
    ../mathlib/powf.c                        0x00000000   Number         0  powf_x.o ABSOLUTE
    ../mathlib/powf.c                        0x00000000   Number         0  powf.o ABSOLUTE
    ../mathlib/rredf.c                       0x00000000   Number         0  rredf.o ABSOLUTE
    ../mathlib/sinf.c                        0x00000000   Number         0  sinf_x.o ABSOLUTE
    ../mathlib/sinf.c                        0x00000000   Number         0  sinf.o ABSOLUTE
    ../mathlib/sqrtf.c                       0x00000000   Number         0  sqrtf.o ABSOLUTE
    ../mathlib/sqrtf.c                       0x00000000   Number         0  sqrtf_x.o ABSOLUTE
    ../mathlib/strtof.c                      0x00000000   Number         0  strtof.o ABSOLUTE
    ../mathlib/tanf.c                        0x00000000   Number         0  tanf.o ABSOLUTE
    ../mathlib/tanf.c                        0x00000000   Number         0  tanf_x.o ABSOLUTE
    ..\ArduinoAPI\Arduino.c                  0x00000000   Number         0  arduino.o ABSOLUTE
    ..\ArduinoAPI\HardwareSerial.cpp         0x00000000   Number         0  hardwareserial.o ABSOLUTE
    ..\ArduinoAPI\Print.cpp                  0x00000000   Number         0  print.o ABSOLUTE
    ..\ArduinoAPI\SPI.cpp                    0x00000000   Number         0  spi.o ABSOLUTE
    ..\ArduinoAPI\Stream.cpp                 0x00000000   Number         0  stream.o ABSOLUTE
    ..\ArduinoAPI\WString.cpp                0x00000000   Number         0  wstring.o ABSOLUTE
    ..\ArduinoAPI\Wire.cpp                   0x00000000   Number         0  wire.o ABSOLUTE
    ..\ArduinoAPI\WireBase.cpp               0x00000000   Number         0  wirebase.o ABSOLUTE
    ..\ArduinoAPI\dtostrf.c                  0x00000000   Number         0  dtostrf.o ABSOLUTE
    ..\ArduinoAPI\itoa.c                     0x00000000   Number         0  itoa.o ABSOLUTE
    ..\CORE\delay.c                          0x00000000   Number         0  delay.o ABSOLUTE
    ..\Core\adc.c                            0x00000000   Number         0  adc.o ABSOLUTE
    ..\Core\exti.c                           0x00000000   Number         0  exti.o ABSOLUTE
    ..\Core\gpio.c                           0x00000000   Number         0  gpio.o ABSOLUTE
    ..\Core\pwm.c                            0x00000000   Number         0  pwm.o ABSOLUTE
    ..\Core\time_exti.c                      0x00000000   Number         0  time_exti.o ABSOLUTE
    ..\Core\usart.c                          0x00000000   Number         0  usart.o ABSOLUTE
    ..\Libraries\lua-5.3.2\src\lapi.c        0x00000000   Number         0  lapi.o ABSOLUTE
    ..\Libraries\lua-5.3.2\src\lauxlib.c     0x00000000   Number         0  lauxlib.o ABSOLUTE
    ..\Libraries\lua-5.3.2\src\lbaselib.c    0x00000000   Number         0  lbaselib.o ABSOLUTE
    ..\Libraries\lua-5.3.2\src\lbitlib.c     0x00000000   Number         0  lbitlib.o ABSOLUTE
    ..\Libraries\lua-5.3.2\src\lcode.c       0x00000000   Number         0  lcode.o ABSOLUTE
    ..\Libraries\lua-5.3.2\src\lcorolib.c    0x00000000   Number         0  lcorolib.o ABSOLUTE
    ..\Libraries\lua-5.3.2\src\lctype.c      0x00000000   Number         0  lctype.o ABSOLUTE
    ..\Libraries\lua-5.3.2\src\ldblib.c      0x00000000   Number         0  ldblib.o ABSOLUTE
    ..\Libraries\lua-5.3.2\src\ldebug.c      0x00000000   Number         0  ldebug.o ABSOLUTE
    ..\Libraries\lua-5.3.2\src\ldo.c         0x00000000   Number         0  ldo.o ABSOLUTE
    ..\Libraries\lua-5.3.2\src\ldump.c       0x00000000   Number         0  ldump.o ABSOLUTE
    ..\Libraries\lua-5.3.2\src\lfunc.c       0x00000000   Number         0  lfunc.o ABSOLUTE
    ..\Libraries\lua-5.3.2\src\lgc.c         0x00000000   Number         0  lgc.o ABSOLUTE
    ..\Libraries\lua-5.3.2\src\linit.c       0x00000000   Number         0  linit.o ABSOLUTE
    ..\Libraries\lua-5.3.2\src\liolib.c      0x00000000   Number         0  liolib.o ABSOLUTE
    ..\Libraries\lua-5.3.2\src\llex.c        0x00000000   Number         0  llex.o ABSOLUTE
    ..\Libraries\lua-5.3.2\src\lmathlib.c    0x00000000   Number         0  lmathlib.o ABSOLUTE
    ..\Libraries\lua-5.3.2\src\lmem.c        0x00000000   Number         0  lmem.o ABSOLUTE
    ..\Libraries\lua-5.3.2\src\loadlib.c     0x00000000   Number         0  loadlib.o ABSOLUTE
    ..\Libraries\lua-5.3.2\src\lobject.c     0x00000000   Number         0  lobject.o ABSOLUTE
    ..\Libraries\lua-5.3.2\src\lopcodes.c    0x00000000   Number         0  lopcodes.o ABSOLUTE
    ..\Libraries\lua-5.3.2\src\loslib.c      0x00000000   Number         0  loslib.o ABSOLUTE
    ..\Libraries\lua-5.3.2\src\lparser.c     0x00000000   Number         0  lparser.o ABSOLUTE
    ..\Libraries\lua-5.3.2\src\lstate.c      0x00000000   Number         0  lstate.o ABSOLUTE
    ..\Libraries\lua-5.3.2\src\lstring.c     0x00000000   Number         0  lstring.o ABSOLUTE
    ..\Libraries\lua-5.3.2\src\lstrlib.c     0x00000000   Number         0  lstrlib.o ABSOLUTE
    ..\Libraries\lua-5.3.2\src\ltable.c      0x00000000   Number         0  ltable.o ABSOLUTE
    ..\Libraries\lua-5.3.2\src\ltablib.c     0x00000000   Number         0  ltablib.o ABSOLUTE
    ..\Libraries\lua-5.3.2\src\ltm.c         0x00000000   Number         0  ltm.o ABSOLUTE
    ..\Libraries\lua-5.3.2\src\lundump.c     0x00000000   Number         0  lundump.o ABSOLUTE
    ..\Libraries\lua-5.3.2\src\lutf8lib.c    0x00000000   Number         0  lutf8lib.o ABSOLUTE
    ..\Libraries\lua-5.3.2\src\lvm.c         0x00000000   Number         0  lvm.o ABSOLUTE
    ..\Libraries\lua-5.3.2\src\lzio.c        0x00000000   Number         0  lzio.o ABSOLUTE
    ..\\ArduinoAPI\\Arduino.c                0x00000000   Number         0  arduino.o ABSOLUTE
    ..\\ArduinoAPI\\HardwareSerial.cpp       0x00000000   Number         0  hardwareserial.o ABSOLUTE
    ..\\ArduinoAPI\\SPI.cpp                  0x00000000   Number         0  spi.o ABSOLUTE
    ..\\ArduinoAPI\\Stream.cpp               0x00000000   Number         0  stream.o ABSOLUTE
    ..\\ArduinoAPI\\Wire.cpp                 0x00000000   Number         0  wire.o ABSOLUTE
    ..\\ArduinoAPI\\WireBase.cpp             0x00000000   Number         0  wirebase.o ABSOLUTE
    ..\\CORE\\delay.c                        0x00000000   Number         0  delay.o ABSOLUTE
    ..\\Core\\adc.c                          0x00000000   Number         0  adc.o ABSOLUTE
    ..\\Core\\exti.c                         0x00000000   Number         0  exti.o ABSOLUTE
    ..\\Core\\gpio.c                         0x00000000   Number         0  gpio.o ABSOLUTE
    ..\\Core\\pwm.c                          0x00000000   Number         0  pwm.o ABSOLUTE
    ..\\Core\\time_exti.c                    0x00000000   Number         0  time_exti.o ABSOLUTE
    ..\\Core\\usart.c                        0x00000000   Number         0  usart.o ABSOLUTE
    ..\\Libraries\\lua-5.3.2\\src\\loslib.c  0x00000000   Number         0  loslib.o ABSOLUTE
    D:\Keil_v5\ARM\PACK\Keil\STM32F1xx_DFP\1.1.0\Device\StdPeriph_Driver\src\misc.c 0x00000000   Number         0  misc.o ABSOLUTE
    D:\Keil_v5\ARM\PACK\Keil\STM32F1xx_DFP\1.1.0\Device\StdPeriph_Driver\src\stm32f10x_adc.c 0x00000000   Number         0  stm32f10x_adc.o ABSOLUTE
    D:\Keil_v5\ARM\PACK\Keil\STM32F1xx_DFP\1.1.0\Device\StdPeriph_Driver\src\stm32f10x_dma.c 0x00000000   Number         0  stm32f10x_dma.o ABSOLUTE
    D:\Keil_v5\ARM\PACK\Keil\STM32F1xx_DFP\1.1.0\Device\StdPeriph_Driver\src\stm32f10x_exti.c 0x00000000   Number         0  stm32f10x_exti.o ABSOLUTE
    D:\Keil_v5\ARM\PACK\Keil\STM32F1xx_DFP\1.1.0\Device\StdPeriph_Driver\src\stm32f10x_gpio.c 0x00000000   Number         0  stm32f10x_gpio.o ABSOLUTE
    D:\Keil_v5\ARM\PACK\Keil\STM32F1xx_DFP\1.1.0\Device\StdPeriph_Driver\src\stm32f10x_rcc.c 0x00000000   Number         0  stm32f10x_rcc.o ABSOLUTE
    D:\Keil_v5\ARM\PACK\Keil\STM32F1xx_DFP\1.1.0\Device\StdPeriph_Driver\src\stm32f10x_spi.c 0x00000000   Number         0  stm32f10x_spi.o ABSOLUTE
    D:\Keil_v5\ARM\PACK\Keil\STM32F1xx_DFP\1.1.0\Device\StdPeriph_Driver\src\stm32f10x_tim.c 0x00000000   Number         0  stm32f10x_tim.o ABSOLUTE
    D:\Keil_v5\ARM\PACK\Keil\STM32F1xx_DFP\1.1.0\Device\StdPeriph_Driver\src\stm32f10x_usart.c 0x00000000   Number         0  stm32f10x_usart.o ABSOLUTE
    D:\\Keil_v5\\ARM\\PACK\\Keil\\STM32F1xx_DFP\\1.1.0\\Device\\StdPeriph_Driver\\src\\misc.c 0x00000000   Number         0  misc.o ABSOLUTE
    D:\\Keil_v5\\ARM\\PACK\\Keil\\STM32F1xx_DFP\\1.1.0\\Device\\StdPeriph_Driver\\src\\stm32f10x_adc.c 0x00000000   Number         0  stm32f10x_adc.o ABSOLUTE
    D:\\Keil_v5\\ARM\\PACK\\Keil\\STM32F1xx_DFP\\1.1.0\\Device\\StdPeriph_Driver\\src\\stm32f10x_dma.c 0x00000000   Number         0  stm32f10x_dma.o ABSOLUTE
    D:\\Keil_v5\\ARM\\PACK\\Keil\\STM32F1xx_DFP\\1.1.0\\Device\\StdPeriph_Driver\\src\\stm32f10x_exti.c 0x00000000   Number         0  stm32f10x_exti.o ABSOLUTE
    D:\\Keil_v5\\ARM\\PACK\\Keil\\STM32F1xx_DFP\\1.1.0\\Device\\StdPeriph_Driver\\src\\stm32f10x_gpio.c 0x00000000   Number         0  stm32f10x_gpio.o ABSOLUTE
    D:\\Keil_v5\\ARM\\PACK\\Keil\\STM32F1xx_DFP\\1.1.0\\Device\\StdPeriph_Driver\\src\\stm32f10x_rcc.c 0x00000000   Number         0  stm32f10x_rcc.o ABSOLUTE
    D:\\Keil_v5\\ARM\\PACK\\Keil\\STM32F1xx_DFP\\1.1.0\\Device\\StdPeriph_Driver\\src\\stm32f10x_spi.c 0x00000000   Number         0  stm32f10x_spi.o ABSOLUTE
    D:\\Keil_v5\\ARM\\PACK\\Keil\\STM32F1xx_DFP\\1.1.0\\Device\\StdPeriph_Driver\\src\\stm32f10x_tim.c 0x00000000   Number         0  stm32f10x_tim.o ABSOLUTE
    D:\\Keil_v5\\ARM\\PACK\\Keil\\STM32F1xx_DFP\\1.1.0\\Device\\StdPeriph_Driver\\src\\stm32f10x_usart.c 0x00000000   Number         0  stm32f10x_usart.o ABSOLUTE
    Lua_Call.cpp                             0x00000000   Number         0  lua_call.o ABSOLUTE
    Lua_Call.cpp                             0x00000000   Number         0  lua_call.o ABSOLUTE
    RTE\Device\STM32F103ZE\startup_stm32f10x_hd.s 0x00000000   Number         0  startup_stm32f10x_hd.o ABSOLUTE
    RTE\Device\STM32F103ZE\system_stm32f10x.c 0x00000000   Number         0  system_stm32f10x.o ABSOLUTE
    RTE\\Device\\STM32F103ZE\\system_stm32f10x.c 0x00000000   Number         0  system_stm32f10x.o ABSOLUTE
    cdcmple.s                                0x00000000   Number         0  cdcmple.o ABSOLUTE
    cdrcmple.s                               0x00000000   Number         0  cdrcmple.o ABSOLUTE
    cfcmple.s                                0x00000000   Number         0  cfcmple.o ABSOLUTE
    cfrcmple.s                               0x00000000   Number         0  cfrcmple.o ABSOLUTE
    dc.s                                     0x00000000   Number         0  dc.o ABSOLUTE
    handlers.s                               0x00000000   Number         0  handlers.o ABSOLUTE
    init.s                                   0x00000000   Number         0  init.o ABSOLUTE
    main.cpp                                 0x00000000   Number         0  main.o ABSOLUTE
    main.cpp                                 0x00000000   Number         0  main.o ABSOLUTE
    RESET                                    0x08000000   Section      304  startup_stm32f10x_hd.o(RESET)
    .ARM.Collect$$$$00000000                 0x08000130   Section        0  entry.o(.ARM.Collect$$$$00000000)
    .ARM.Collect$$$$00000001                 0x08000130   Section        4  entry2.o(.ARM.Collect$$$$00000001)
    .ARM.Collect$$$$00000004                 0x08000134   Section        4  entry5.o(.ARM.Collect$$$$00000004)
    .ARM.Collect$$$$00000008                 0x08000138   Section        0  entry7b.o(.ARM.Collect$$$$00000008)
    .ARM.Collect$$$$00000009                 0x08000138   Section        4  entry8a.o(.ARM.Collect$$$$00000009)
    .ARM.Collect$$$$0000000A                 0x0800013c   Section        0  entry8b.o(.ARM.Collect$$$$0000000A)
    .ARM.Collect$$$$0000000B                 0x0800013c   Section        8  entry9a.o(.ARM.Collect$$$$0000000B)
    .ARM.Collect$$$$0000000D                 0x08000144   Section        0  entry10a.o(.ARM.Collect$$$$0000000D)
    .ARM.Collect$$$$0000000E                 0x08000144   Section        4  entry10b.o(.ARM.Collect$$$$0000000E)
    .ARM.Collect$$$$0000000F                 0x08000148   Section        0  entry11a.o(.ARM.Collect$$$$0000000F)
    .ARM.Collect$$$$00002712                 0x08000148   Section        4  entry2.o(.ARM.Collect$$$$00002712)
    __lit__00000000                          0x08000148   Data           4  entry2.o(.ARM.Collect$$$$00002712)
    .emb_text                                0x0800014c   Section       24  main.o(.emb_text)
    .text                                    0x08000164   Section        0  arduino.o(.text)
    .text                                    0x08000484   Section        0  dtostrf.o(.text)
    .text                                    0x080004c4   Section        0  itoa.o(.text)
    .text                                    0x080005e8   Section        0  print.o(.text)
    .text                                    0x08000bb4   Section        0  hardwareserial.o(.text)
    __sti___18_HardwareSerial_cpp_cfa1b6a6   0x08000ceb   Thumb Code    28  hardwareserial.o(.text)
    .text                                    0x08000d38   Section        0  stream.o(.text)
    .text                                    0x080011c4   Section        0  wstring.o(.text)
    .text                                    0x08001e80   Section        0  wire.o(.text)
    __sti___8_Wire_cpp_928ee5ff              0x080020ff   Thumb Code    28  wire.o(.text)
    .text                                    0x0800212c   Section        0  spi.o(.text)
    __sti___7_SPI_cpp_ce5662b4               0x080024c9   Thumb Code    22  spi.o(.text)
    .text                                    0x080024fc   Section        0  lapi.o(.text)
    index2addr                               0x080024fd   Thumb Code    98  lapi.o(.text)
    growstack                                0x0800255f   Thumb Code    18  lapi.o(.text)
    reverse                                  0x08002695   Thumb Code    46  lapi.o(.text)
    auxgetstr                                0x08002da1   Thumb Code   174  lapi.o(.text)
    auxsetstr                                0x0800315d   Thumb Code   178  lapi.o(.text)
    f_call                                   0x08003633   Thumb Code    20  lapi.o(.text)
    aux_upvalue                              0x080039ad   Thumb Code   134  lapi.o(.text)
    getupvalref                              0x08003b35   Thumb Code    44  lapi.o(.text)
    .text                                    0x08003c24   Section        0  lauxlib.o(.text)
    findfield                                0x08003c25   Thumb Code   168  lauxlib.o(.text)
    pushglobalfuncname                       0x08003ccd   Thumb Code   142  lauxlib.o(.text)
    pushfuncname                             0x08003d5b   Thumb Code   134  lauxlib.o(.text)
    lastlevel                                0x08003de1   Thumb Code    70  lauxlib.o(.text)
    typeerror                                0x080041bd   Thumb Code   102  lauxlib.o(.text)
    tag_error                                0x08004223   Thumb Code    34  lauxlib.o(.text)
    interror                                 0x08004511   Thumb Code    40  lauxlib.o(.text)
    resizebox                                0x0800457d   Thumb Code   218  lauxlib.o(.text)
    boxgc                                    0x08004657   Thumb Code    18  lauxlib.o(.text)
    newbox                                   0x08004669   Thumb Code    78  lauxlib.o(.text)
    getF                                     0x0800490d   Thumb Code    66  lauxlib.o(.text)
    errfile                                  0x0800494f   Thumb Code    82  lauxlib.o(.text)
    skipBOM                                  0x080049a1   Thumb Code    64  lauxlib.o(.text)
    skipcomment                              0x080049e1   Thumb Code    54  lauxlib.o(.text)
    getS                                     0x08004b97   Thumb Code    28  lauxlib.o(.text)
    l_alloc                                  0x08004f93   Thumb Code    36  lauxlib.o(.text)
    panic                                    0x08004fb7   Thumb Code    36  lauxlib.o(.text)
    .text                                    0x08005120   Section        0  lbaselib.o(.text)
    luaB_print                               0x08005121   Thumb Code   136  lbaselib.o(.text)
    b_str2int                                0x080051a9   Thumb Code   160  lbaselib.o(.text)
    luaB_tonumber                            0x08005249   Thumb Code   180  lbaselib.o(.text)
    luaB_error                               0x080052fd   Thumb Code    70  lbaselib.o(.text)
    luaB_getmetatable                        0x08005343   Thumb Code    46  lbaselib.o(.text)
    luaB_setmetatable                        0x08005371   Thumb Code    82  lbaselib.o(.text)
    luaB_rawequal                            0x080053c3   Thumb Code    44  lbaselib.o(.text)
    luaB_rawlen                              0x080053ef   Thumb Code    54  lbaselib.o(.text)
    luaB_rawget                              0x08005425   Thumb Code    42  lbaselib.o(.text)
    luaB_rawset                              0x0800544f   Thumb Code    50  lbaselib.o(.text)
    luaB_collectgarbage                      0x08005481   Thumb Code   364  lbaselib.o(.text)
    luaB_type                                0x080055ed   Thumb Code    50  lbaselib.o(.text)
    pairsmeta                                0x0800561f   Thumb Code    98  lbaselib.o(.text)
    luaB_next                                0x08005681   Thumb Code    46  lbaselib.o(.text)
    luaB_pairs                               0x080056af   Thumb Code    18  lbaselib.o(.text)
    ipairsaux                                0x080056c1   Thumb Code    42  lbaselib.o(.text)
    luaB_ipairs                              0x080056eb   Thumb Code    42  lbaselib.o(.text)
    load_aux                                 0x08005715   Thumb Code    66  lbaselib.o(.text)
    luaB_loadfile                            0x08005757   Thumb Code    80  lbaselib.o(.text)
    generic_reader                           0x080057a7   Thumb Code   122  lbaselib.o(.text)
    luaB_load                                0x08005821   Thumb Code   150  lbaselib.o(.text)
    dofilecont                               0x080058b7   Thumb Code    18  lbaselib.o(.text)
    luaB_dofile                              0x080058c9   Thumb Code    74  lbaselib.o(.text)
    luaB_assert                              0x08005913   Thumb Code    76  lbaselib.o(.text)
    luaB_select                              0x0800595f   Thumb Code    94  lbaselib.o(.text)
    finishpcall                              0x080059bd   Thumb Code   210  lbaselib.o(.text)
    luaB_pcall                               0x08005a8f   Thumb Code    72  lbaselib.o(.text)
    luaB_xpcall                              0x08005ad7   Thumb Code    82  lbaselib.o(.text)
    luaB_tostring                            0x08005b29   Thumb Code    26  lbaselib.o(.text)
    .text                                    0x08005bac   Section        0  lcode.o(.text)
    tonumeral                                0x08005bad   Thumb Code    64  lcode.o(.text)
    fixjump                                  0x08005bed   Thumb Code    68  lcode.o(.text)
    getjumpcontrol                           0x08005c31   Thumb Code    42  lcode.o(.text)
    patchtestreg                             0x08005c5b   Thumb Code    96  lcode.o(.text)
    getjump                                  0x08005cbb   Thumb Code    38  lcode.o(.text)
    patchlistaux                             0x08005ce1   Thumb Code    76  lcode.o(.text)
    dischargejpc                             0x08005d2d   Thumb Code    28  lcode.o(.text)
    luaK_code                                0x08005d49   Thumb Code   118  lcode.o(.text)
    condjump                                 0x08005f19   Thumb Code    42  lcode.o(.text)
    need_value                               0x08005f4d   Thumb Code    50  lcode.o(.text)
    removevalues                             0x08005f7f   Thumb Code    36  lcode.o(.text)
    codeextraarg                             0x08006051   Thumb Code    20  lcode.o(.text)
    freereg                                  0x080060df   Thumb Code    28  lcode.o(.text)
    freeexp                                  0x080060fb   Thumb Code    22  lcode.o(.text)
    addk                                     0x08006111   Thumb Code   230  lcode.o(.text)
    luaK_numberK                             0x0800623b   Thumb Code    26  lcode.o(.text)
    boolK                                    0x08006255   Thumb Code    26  lcode.o(.text)
    nilK                                     0x0800626f   Thumb Code    34  lcode.o(.text)
    code_label                               0x080063c1   Thumb Code    32  lcode.o(.text)
    discharge2reg                            0x080063e1   Thumb Code   260  lcode.o(.text)
    discharge2anyreg                         0x080064e5   Thumb Code    36  lcode.o(.text)
    exp2reg                                  0x08006509   Thumb Code   188  lcode.o(.text)
    invertjump                               0x080067eb   Thumb Code    40  lcode.o(.text)
    jumponcond                               0x08006813   Thumb Code   102  lcode.o(.text)
    codenot                                  0x08006935   Thumb Code   140  lcode.o(.text)
    validop                                  0x080069ed   Thumb Code   142  lcode.o(.text)
    constfolding                             0x08006a7b   Thumb Code   126  lcode.o(.text)
    codeexpval                               0x08006b07   Thumb Code   158  lcode.o(.text)
    codecomp                                 0x08006ba5   Thumb Code    94  lcode.o(.text)
    .text                                    0x08006e90   Section        0  lcorolib.o(.text)
    getco                                    0x08006e91   Thumb Code    30  lcorolib.o(.text)
    auxresume                                0x08006eaf   Thumb Code   166  lcorolib.o(.text)
    luaB_coresume                            0x08006f55   Thumb Code    86  lcorolib.o(.text)
    luaB_auxwrap                             0x08006fab   Thumb Code    92  lcorolib.o(.text)
    luaB_cocreate                            0x08007007   Thumb Code    44  lcorolib.o(.text)
    luaB_cowrap                              0x08007033   Thumb Code    24  lcorolib.o(.text)
    luaB_yield                               0x0800704b   Thumb Code    26  lcorolib.o(.text)
    luaB_costatus                            0x08007065   Thumb Code   120  lcorolib.o(.text)
    luaB_yieldable                           0x080070dd   Thumb Code    24  lcorolib.o(.text)
    luaB_corunning                           0x080070f5   Thumb Code    24  lcorolib.o(.text)
    .text                                    0x080071d4   Section        0  ldblib.o(.text)
    checkstack                               0x080071d5   Thumb Code    32  ldblib.o(.text)
    db_getregistry                           0x080071f5   Thumb Code    16  ldblib.o(.text)
    db_getmetatable                          0x08007205   Thumb Code    32  ldblib.o(.text)
    db_setmetatable                          0x08007225   Thumb Code    50  ldblib.o(.text)
    db_getuservalue                          0x08007257   Thumb Code    36  ldblib.o(.text)
    db_setuservalue                          0x0800727b   Thumb Code    42  ldblib.o(.text)
    getthread                                0x080072a5   Thumb Code    40  ldblib.o(.text)
    settabss                                 0x080072cd   Thumb Code    30  ldblib.o(.text)
    settabsi                                 0x080072eb   Thumb Code    30  ldblib.o(.text)
    settabsb                                 0x08007309   Thumb Code    30  ldblib.o(.text)
    treatstackoption                         0x08007327   Thumb Code    48  ldblib.o(.text)
    db_getinfo                               0x08007357   Thumb Code   384  ldblib.o(.text)
    db_getlocal                              0x080074d7   Thumb Code   186  ldblib.o(.text)
    db_setlocal                              0x08007591   Thumb Code   396  ldblib.o(.text)
    auxupvalue                               0x0800771d   Thumb Code    86  ldblib.o(.text)
    db_getupvalue                            0x08007773   Thumb Code    14  ldblib.o(.text)
    db_setupvalue                            0x08007781   Thumb Code    22  ldblib.o(.text)
    checkupval                               0x08007797   Thumb Code    58  ldblib.o(.text)
    db_upvalueid                             0x080077d1   Thumb Code    40  ldblib.o(.text)
    db_upvaluejoin                           0x080077f9   Thumb Code    86  ldblib.o(.text)
    hookf                                    0x0800784f   Thumb Code    90  ldblib.o(.text)
    makemask                                 0x080078a9   Thumb Code    62  ldblib.o(.text)
    unmakemask                               0x080078e7   Thumb Code    56  ldblib.o(.text)
    db_sethook                               0x0800791f   Thumb Code   248  ldblib.o(.text)
    db_gethook                               0x08007a17   Thumb Code   166  ldblib.o(.text)
    db_debug                                 0x08007abd   Thumb Code   136  ldblib.o(.text)
    db_traceback                             0x08007b45   Thumb Code   248  ldblib.o(.text)
    .text                                    0x08007c6c   Section        0  ldebug.o(.text)
    currentpc                                0x08007c6d   Thumb Code    22  ldebug.o(.text)
    currentline                              0x08007c83   Thumb Code    40  ldebug.o(.text)
    swapextra                                0x08007cab   Thumb Code    30  ldebug.o(.text)
    upvalname                                0x08007d3f   Thumb Code    20  ldebug.o(.text)
    findvararg                               0x08007d53   Thumb Code    46  ldebug.o(.text)
    findlocal                                0x08007d81   Thumb Code   138  ldebug.o(.text)
    funcinfo                                 0x08007eaf   Thumb Code    84  ldebug.o(.text)
    collectvalidlines                        0x08007f03   Thumb Code   102  ldebug.o(.text)
    kname                                    0x08007f69   Thumb Code    84  ldebug.o(.text)
    filterpc                                 0x08007fbd   Thumb Code    16  ldebug.o(.text)
    findsetreg                               0x08007fcd   Thumb Code   218  ldebug.o(.text)
    getobjname                               0x080080a7   Thumb Code   404  ldebug.o(.text)
    getfuncname                              0x0800823b   Thumb Code   254  ldebug.o(.text)
    auxgetinfo                               0x08008339   Thumb Code   248  ldebug.o(.text)
    isinstack                                0x080084bd   Thumb Code    44  ldebug.o(.text)
    getupvalname                             0x080084e9   Thumb Code    62  ldebug.o(.text)
    varinfo                                  0x08008527   Thumb Code   206  ldebug.o(.text)
    .text                                    0x08008970   Section        0  ldo.o(.text)
    seterrorobj                              0x08008971   Thumb Code    96  ldo.o(.text)
    correctstack                             0x08008a7b   Thumb Code   106  ldo.o(.text)
    stackinuse                               0x08008b9d   Thumb Code    32  ldo.o(.text)
    callhook                                 0x08008cc3   Thumb Code    76  ldo.o(.text)
    adjust_varargs                           0x08008d0f   Thumb Code    98  ldo.o(.text)
    tryfuncTM                                0x08008d71   Thumb Code   128  ldo.o(.text)
    moveresults                              0x08008df1   Thumb Code   162  ldo.o(.text)
    stackerror                               0x080090b7   Thumb Code    40  ldo.o(.text)
    finishCcall                              0x08009143   Thumb Code   126  ldo.o(.text)
    unroll                                   0x080091c1   Thumb Code    64  ldo.o(.text)
    findpcall                                0x08009201   Thumb Code    30  ldo.o(.text)
    recover                                  0x0800921f   Thumb Code    82  ldo.o(.text)
    resume_error                             0x08009271   Thumb Code    54  ldo.o(.text)
    resume                                   0x080092a7   Thumb Code   182  ldo.o(.text)
    checkmode                                0x080094cf   Thumb Code    42  ldo.o(.text)
    f_parser                                 0x080094f9   Thumb Code   120  ldo.o(.text)
    .text                                    0x080096f8   Section        0  ldump.o(.text)
    DumpBlock                                0x080096f9   Thumb Code    36  ldump.o(.text)
    DumpByte                                 0x0800971d   Thumb Code    22  ldump.o(.text)
    DumpInt                                  0x08009733   Thumb Code    16  ldump.o(.text)
    DumpNumber                               0x08009743   Thumb Code    16  ldump.o(.text)
    DumpInteger                              0x08009753   Thumb Code    16  ldump.o(.text)
    DumpString                               0x08009763   Thumb Code    88  ldump.o(.text)
    DumpCode                                 0x080097bb   Thumb Code    28  ldump.o(.text)
    DumpConstants                            0x080097d7   Thumb Code   132  ldump.o(.text)
    DumpDebug                                0x0800985b   Thumb Code   166  ldump.o(.text)
    DumpUpvalues                             0x08009901   Thumb Code    60  ldump.o(.text)
    DumpFunction                             0x0800993d   Thumb Code   118  ldump.o(.text)
    DumpProtos                               0x080099b3   Thumb Code    46  ldump.o(.text)
    DumpHeader                               0x080099e1   Thumb Code   114  ldump.o(.text)
    .text                                    0x08009ab0   Section        0  lfunc.o(.text)
    .text                                    0x08009cfc   Section        0  lgc.o(.text)
    removeentry                              0x08009cfd   Thumb Code    24  lgc.o(.text)
    reallymarkobject                         0x08009d15   Thumb Code   218  lgc.o(.text)
    iscleared                                0x08009def   Thumb Code    60  lgc.o(.text)
    markmt                                   0x08009ee7   Thumb Code    56  lgc.o(.text)
    markbeingfnz                             0x08009f1f   Thumb Code    32  lgc.o(.text)
    remarkupvals                             0x08009f3f   Thumb Code    98  lgc.o(.text)
    restartcollection                        0x08009fa1   Thumb Code    76  lgc.o(.text)
    traverseweakvalue                        0x08009fed   Thumb Code   124  lgc.o(.text)
    traverseephemeron                        0x0800a069   Thumb Code   224  lgc.o(.text)
    traversestrongtable                      0x0800a149   Thumb Code   154  lgc.o(.text)
    traversetable                            0x0800a1e3   Thumb Code   198  lgc.o(.text)
    traverseproto                            0x0800a2a9   Thumb Code   296  lgc.o(.text)
    traverseCclosure                         0x0800a3d1   Thumb Code    74  lgc.o(.text)
    traverseLclosure                         0x0800a41b   Thumb Code   120  lgc.o(.text)
    traversethread                           0x0800a493   Thumb Code   126  lgc.o(.text)
    propagatemark                            0x0800a511   Thumb Code   164  lgc.o(.text)
    propagateall                             0x0800a5b5   Thumb Code    20  lgc.o(.text)
    convergeephemerons                       0x0800a5c9   Thumb Code    50  lgc.o(.text)
    clearkeys                                0x0800a5fb   Thumb Code    76  lgc.o(.text)
    clearvalues                              0x0800a647   Thumb Code   108  lgc.o(.text)
    freeLclosure                             0x0800a6db   Thumb Code    62  lgc.o(.text)
    freeobj                                  0x0800a719   Thumb Code   176  lgc.o(.text)
    sweeplist                                0x0800a7c9   Thumb Code   102  lgc.o(.text)
    sweeptolive                              0x0800a82f   Thumb Code    48  lgc.o(.text)
    checkSizes                               0x0800a85f   Thumb Code    64  lgc.o(.text)
    udata2finalize                           0x0800a89f   Thumb Code    58  lgc.o(.text)
    dothecall                                0x0800a8d9   Thumb Code    22  lgc.o(.text)
    GCTM                                     0x0800a8ef   Thumb Code   208  lgc.o(.text)
    runafewfinalizers                        0x0800a9bf   Thumb Code    48  lgc.o(.text)
    callallpendingfinalizers                 0x0800a9ef   Thumb Code    26  lgc.o(.text)
    findlast                                 0x0800aa09   Thumb Code    12  lgc.o(.text)
    separatetobefnz                          0x0800aa15   Thumb Code    64  lgc.o(.text)
    setpause                                 0x0800aae9   Thumb Code    60  lgc.o(.text)
    entersweep                               0x0800ab25   Thumb Code    34  lgc.o(.text)
    atomic                                   0x0800ab93   Thumb Code   238  lgc.o(.text)
    sweepstep                                0x0800ac81   Thumb Code    68  lgc.o(.text)
    singlestep                               0x0800acc5   Thumb Code   292  lgc.o(.text)
    getdebt                                  0x0800ae09   Thumb Code    50  lgc.o(.text)
    .text                                    0x0800aef8   Section        0  linit.o(.text)
    .text                                    0x0800af24   Section        0  liolib.o(.text)
    io_type                                  0x0800af25   Thumb Code    60  liolib.o(.text)
    f_tostring                               0x0800af61   Thumb Code    44  liolib.o(.text)
    tofile                                   0x0800af8d   Thumb Code    32  liolib.o(.text)
    newprefile                               0x0800afad   Thumb Code    30  liolib.o(.text)
    aux_close                                0x0800afcb   Thumb Code    32  liolib.o(.text)
    io_close                                 0x0800afeb   Thumb Code    40  liolib.o(.text)
    f_gc                                     0x0800b013   Thumb Code    34  liolib.o(.text)
    io_fclose                                0x0800b035   Thumb Code    44  liolib.o(.text)
    newfile                                  0x0800b061   Thumb Code    24  liolib.o(.text)
    opencheck                                0x0800b079   Thumb Code    64  liolib.o(.text)
    io_open                                  0x0800b0b9   Thumb Code   132  liolib.o(.text)
    io_pclose                                0x0800b13d   Thumb Code    28  liolib.o(.text)
    io_popen                                 0x0800b159   Thumb Code    78  liolib.o(.text)
    io_tmpfile                               0x0800b1a7   Thumb Code    38  liolib.o(.text)
    getiofile                                0x0800b1cd   Thumb Code    46  liolib.o(.text)
    g_iofile                                 0x0800b1fb   Thumb Code    90  liolib.o(.text)
    io_input                                 0x0800b255   Thumb Code    16  liolib.o(.text)
    io_output                                0x0800b265   Thumb Code    16  liolib.o(.text)
    read_all                                 0x0800b275   Thumb Code    76  liolib.o(.text)
    read_line                                0x0800b2c1   Thumb Code   398  liolib.o(.text)
    nextc                                    0x0800b44f   Thumb Code    42  liolib.o(.text)
    readdigits                               0x0800b479   Thumb Code    74  liolib.o(.text)
    test2                                    0x0800b4c3   Thumb Code    38  liolib.o(.text)
    read_number                              0x0800b4e9   Thumb Code   208  liolib.o(.text)
    read_chars                               0x0800b5b9   Thumb Code    74  liolib.o(.text)
    test_eof                                 0x0800b603   Thumb Code    44  liolib.o(.text)
    g_read                                   0x0800b62f   Thumb Code   282  liolib.o(.text)
    io_readline                              0x0800b749   Thumb Code   182  liolib.o(.text)
    aux_lines                                0x0800b7ff   Thumb Code    66  liolib.o(.text)
    f_lines                                  0x0800b841   Thumb Code    22  liolib.o(.text)
    io_lines                                 0x0800b857   Thumb Code   136  liolib.o(.text)
    io_read                                  0x0800b8df   Thumb Code    28  liolib.o(.text)
    f_read                                   0x0800b8fb   Thumb Code   118  liolib.o(.text)
    g_write                                  0x0800b971   Thumb Code   194  liolib.o(.text)
    io_write                                 0x0800ba33   Thumb Code    28  liolib.o(.text)
    f_write                                  0x0800ba4f   Thumb Code    32  liolib.o(.text)
    f_seek                                   0x0800ba6f   Thumb Code   108  liolib.o(.text)
    f_setvbuf                                0x0800badb   Thumb Code    82  liolib.o(.text)
    io_flush                                 0x0800bb2d   Thumb Code    42  liolib.o(.text)
    f_flush                                  0x0800bb57   Thumb Code    38  liolib.o(.text)
    createmeta                               0x0800bb7d   Thumb Code    58  liolib.o(.text)
    io_noclose                               0x0800bbb7   Thumb Code    40  liolib.o(.text)
    createstdfile                            0x0800bbdf   Thumb Code    64  liolib.o(.text)
    .text                                    0x0800bd10   Section        0  llex.o(.text)
    txtToken                                 0x0800bd49   Thumb Code    66  llex.o(.text)
    lexerror                                 0x0800bd8b   Thumb Code    60  llex.o(.text)
    save                                     0x0800bdc7   Thumb Code    76  llex.o(.text)
    inclinenumber                            0x0800becf   Thumb Code   118  llex.o(.text)
    check_next1                              0x0800bfa1   Thumb Code    54  llex.o(.text)
    check_next2                              0x0800bfd7   Thumb Code    72  llex.o(.text)
    buffreplace                              0x0800c01f   Thumb Code    36  llex.o(.text)
    trydecpoint                              0x0800c043   Thumb Code    70  llex.o(.text)
    read_numeral                             0x0800c089   Thumb Code   412  llex.o(.text)
    skip_sep                                 0x0800c225   Thumb Code   118  llex.o(.text)
    read_long_string                         0x0800c29b   Thumb Code   336  llex.o(.text)
    esccheck                                 0x0800c3eb   Thumb Code    72  llex.o(.text)
    gethexa                                  0x0800c433   Thumb Code    74  llex.o(.text)
    readhexaesc                              0x0800c47d   Thumb Code    36  llex.o(.text)
    readutf8esc                              0x0800c4a1   Thumb Code   242  llex.o(.text)
    utf8esc                                  0x0800c593   Thumb Code    46  llex.o(.text)
    readdecesc                               0x0800c5c1   Thumb Code   120  llex.o(.text)
    read_string                              0x0800c639   Thumb Code   822  llex.o(.text)
    llex                                     0x0800c96f   Thumb Code  1190  llex.o(.text)
    .text                                    0x0800ce5c   Section        0  lmathlib.o(.text)
    math_abs                                 0x0800ce5d   Thumb Code    66  lmathlib.o(.text)
    math_sin                                 0x0800ce9f   Thumb Code    32  lmathlib.o(.text)
    math_cos                                 0x0800cebf   Thumb Code    32  lmathlib.o(.text)
    math_tan                                 0x0800cedf   Thumb Code    32  lmathlib.o(.text)
    math_asin                                0x0800ceff   Thumb Code    32  lmathlib.o(.text)
    math_acos                                0x0800cf1f   Thumb Code    32  lmathlib.o(.text)
    math_atan                                0x0800cf3f   Thumb Code    54  lmathlib.o(.text)
    math_toint                               0x0800cf75   Thumb Code    48  lmathlib.o(.text)
    pushnumint                               0x0800cfa5   Thumb Code    62  lmathlib.o(.text)
    math_floor                               0x0800cfe3   Thumb Code    54  lmathlib.o(.text)
    math_ceil                                0x0800d019   Thumb Code    54  lmathlib.o(.text)
    math_fmod                                0x0800d04f   Thumb Code   136  lmathlib.o(.text)
    math_modf                                0x0800d0d7   Thumb Code   118  lmathlib.o(.text)
    math_sqrt                                0x0800d14d   Thumb Code    32  lmathlib.o(.text)
    math_ult                                 0x0800d16d   Thumb Code    46  lmathlib.o(.text)
    math_log                                 0x0800d19b   Thumb Code   158  lmathlib.o(.text)
    math_exp                                 0x0800d239   Thumb Code    32  lmathlib.o(.text)
    math_deg                                 0x0800d259   Thumb Code    34  lmathlib.o(.text)
    math_rad                                 0x0800d27b   Thumb Code    34  lmathlib.o(.text)
    math_min                                 0x0800d29d   Thumb Code    70  lmathlib.o(.text)
    math_max                                 0x0800d2e3   Thumb Code    70  lmathlib.o(.text)
    math_random                              0x0800d329   Thumb Code   212  lmathlib.o(.text)
    math_randomseed                          0x0800d3fd   Thumb Code    32  lmathlib.o(.text)
    math_type                                0x0800d41d   Thumb Code   188  lmathlib.o(.text)
    .text                                    0x0800d584   Section        0  lmem.o(.text)
    .text                                    0x0800d6a8   Section        0  loadlib.o(.text)
    lsys_unloadlib                           0x0800d6a9   Thumb Code     2  loadlib.o(.text)
    lsys_load                                0x0800d6ab   Thumb Code    20  loadlib.o(.text)
    lsys_sym                                 0x0800d6bf   Thumb Code    20  loadlib.o(.text)
    checkclib                                0x0800d6d3   Thumb Code    54  loadlib.o(.text)
    addtoclib                                0x0800d709   Thumb Code    88  loadlib.o(.text)
    gctm                                     0x0800d761   Thumb Code    62  loadlib.o(.text)
    lookforfunc                              0x0800d79f   Thumb Code   114  loadlib.o(.text)
    ll_loadlib                               0x0800d811   Thumb Code    88  loadlib.o(.text)
    readable                                 0x0800d869   Thumb Code    30  loadlib.o(.text)
    pushnexttemplate                         0x0800d887   Thumb Code    64  loadlib.o(.text)
    searchpath                               0x0800d8c7   Thumb Code   180  loadlib.o(.text)
    ll_searchpath                            0x0800d97b   Thumb Code   102  loadlib.o(.text)
    findfile                                 0x0800d9e1   Thumb Code    66  loadlib.o(.text)
    checkload                                0x0800da23   Thumb Code    66  loadlib.o(.text)
    searcher_Lua                             0x0800da65   Thumb Code   286  loadlib.o(.text)
    loadfunc                                 0x0800db83   Thumb Code   114  loadlib.o(.text)
    searcher_C                               0x0800dbf5   Thumb Code    74  loadlib.o(.text)
    searcher_Croot                           0x0800dc3f   Thumb Code   138  loadlib.o(.text)
    searcher_preload                         0x0800dcc9   Thumb Code    54  loadlib.o(.text)
    findloader                               0x0800dcff   Thumb Code   190  loadlib.o(.text)
    ll_require                               0x0800ddbd   Thumb Code   178  loadlib.o(.text)
    noenv                                    0x0800de6f   Thumb Code    40  loadlib.o(.text)
    setpath                                  0x0800de97   Thumb Code   118  loadlib.o(.text)
    createsearcherstable                     0x0800df0d   Thumb Code    78  loadlib.o(.text)
    createclibstable                         0x0800df5b   Thumb Code   308  loadlib.o(.text)
    .text                                    0x0800e1c8   Section        0  lobject.o(.text)
    intarith                                 0x0800e22d   Thumb Code   124  lobject.o(.text)
    numarith                                 0x0800e2a9   Thumb Code   154  lobject.o(.text)
    isneg                                    0x0800e4b7   Thumb Code    38  lobject.o(.text)
    l_str2d                                  0x0800e4dd   Thumb Code   102  lobject.o(.text)
    l_str2int                                0x0800e543   Thumb Code   232  lobject.o(.text)
    pushstr                                  0x0800e723   Thumb Code    44  lobject.o(.text)
    .text                                    0x0800ea80   Section        0  loslib.o(.text)
    l_checktime                              0x0800ea93   Thumb Code    34  loslib.o(.text)
    os_execute                               0x0800eab5   Thumb Code    50  loslib.o(.text)
    os_remove                                0x0800eae7   Thumb Code    44  loslib.o(.text)
    os_rename                                0x0800eb13   Thumb Code    62  loslib.o(.text)
    os_tmpname                               0x0800eb51   Thumb Code    48  loslib.o(.text)
    os_getenv                                0x0800eb81   Thumb Code    34  loslib.o(.text)
    os_clock                                 0x0800eba3   Thumb Code    40  loslib.o(.text)
    setfield                                 0x0800ebcb   Thumb Code    30  loslib.o(.text)
    setboolfield                             0x0800ebe9   Thumb Code    38  loslib.o(.text)
    getboolfield                             0x0800ec0f   Thumb Code    52  loslib.o(.text)
    getfield                                 0x0800ec43   Thumb Code   124  loslib.o(.text)
    checkoption                              0x0800ecbf   Thumb Code   122  loslib.o(.text)
    os_date                                  0x0800ed39   Thumb Code   684  loslib.o(.text)
    os_time                                  0x0800efe5   Thumb Code   200  loslib.o(.text)
    os_difftime                              0x0800f0ad   Thumb Code    56  loslib.o(.text)
    os_setlocale                             0x0800f0e5   Thumb Code    62  loslib.o(.text)
    os_exit                                  0x0800f123   Thumb Code    76  loslib.o(.text)
    .text                                    0x0800f1a8   Section        0  lparser.o(.text)
    semerror                                 0x0800f1a9   Thumb Code    20  lparser.o(.text)
    error_expected                           0x0800f1bd   Thumb Code    42  lparser.o(.text)
    errorlimit                               0x0800f1e7   Thumb Code    68  lparser.o(.text)
    checklimit                               0x0800f22b   Thumb Code    30  lparser.o(.text)
    testnext                                 0x0800f249   Thumb Code    26  lparser.o(.text)
    check                                    0x0800f263   Thumb Code    22  lparser.o(.text)
    checknext                                0x0800f279   Thumb Code    22  lparser.o(.text)
    check_match                              0x0800f28f   Thumb Code    86  lparser.o(.text)
    str_checkname                            0x0800f2e5   Thumb Code    26  lparser.o(.text)
    init_exp                                 0x0800f2ff   Thumb Code    14  lparser.o(.text)
    codestring                               0x0800f30d   Thumb Code    34  lparser.o(.text)
    checkname                                0x0800f32f   Thumb Code    26  lparser.o(.text)
    registerlocalvar                         0x0800f349   Thumb Code   140  lparser.o(.text)
    new_localvar                             0x0800f3d5   Thumb Code    96  lparser.o(.text)
    new_localvarliteral_                     0x0800f435   Thumb Code    34  lparser.o(.text)
    getlocvar                                0x0800f457   Thumb Code    32  lparser.o(.text)
    adjustlocalvars                          0x0800f477   Thumb Code    44  lparser.o(.text)
    removevars                               0x0800f4a3   Thumb Code    62  lparser.o(.text)
    searchupvalue                            0x0800f4e1   Thumb Code    42  lparser.o(.text)
    newupvalue                               0x0800f50b   Thumb Code   336  lparser.o(.text)
    searchvar                                0x0800f65b   Thumb Code    44  lparser.o(.text)
    markupval                                0x0800f687   Thumb Code    20  lparser.o(.text)
    singlevaraux                             0x0800f69b   Thumb Code   118  lparser.o(.text)
    singlevar                                0x0800f711   Thumb Code    70  lparser.o(.text)
    adjust_assign                            0x0800f757   Thumb Code   108  lparser.o(.text)
    enterlevel                               0x0800f7c3   Thumb Code    30  lparser.o(.text)
    closegoto                                0x0800f7e1   Thumb Code   140  lparser.o(.text)
    findlabel                                0x0800f86d   Thumb Code   110  lparser.o(.text)
    newlabelentry                            0x0800f8db   Thumb Code   104  lparser.o(.text)
    findgotos                                0x0800f943   Thumb Code    60  lparser.o(.text)
    movegotosout                             0x0800f97f   Thumb Code    80  lparser.o(.text)
    enterblock                               0x0800f9cf   Thumb Code    36  lparser.o(.text)
    breaklabel                               0x0800f9f3   Thumb Code    54  lparser.o(.text)
    undefgoto                                0x0800fa29   Thumb Code    58  lparser.o(.text)
    leaveblock                               0x0800fa63   Thumb Code   126  lparser.o(.text)
    addprototype                             0x0800fae1   Thumb Code   140  lparser.o(.text)
    codeclosure                              0x0800fb6d   Thumb Code    50  lparser.o(.text)
    open_func                                0x0800fb9f   Thumb Code   272  lparser.o(.text)
    close_func                               0x0800fcaf   Thumb Code   278  lparser.o(.text)
    block_follow                             0x0800fdc5   Thumb Code    56  lparser.o(.text)
    getbinopr                                0x0800fdfd   Thumb Code   210  lparser.o(.text)
    lastlistfield                            0x0800fecf   Thumb Code    90  lparser.o(.text)
    listfield                                0x0800ff29   Thumb Code    42  lparser.o(.text)
    yindex                                   0x0800ff53   Thumb Code    38  lparser.o(.text)
    recfield                                 0x0800ff79   Thumb Code   126  lparser.o(.text)
    field                                    0x0800fff7   Thumb Code    72  lparser.o(.text)
    closelistfield                           0x0801003f   Thumb Code    52  lparser.o(.text)
    constructor                              0x08010073   Thumb Code   210  lparser.o(.text)
    funcargs                                 0x08010145   Thumb Code   226  lparser.o(.text)
    fieldsel                                 0x08010227   Thumb Code    42  lparser.o(.text)
    primaryexp                               0x08010251   Thumb Code    84  lparser.o(.text)
    suffixedexp                              0x080102a5   Thumb Code   234  lparser.o(.text)
    parlist                                  0x0801038f   Thumb Code   124  lparser.o(.text)
    body                                     0x0801040b   Thumb Code   120  lparser.o(.text)
    simpleexp                                0x08010483   Thumb Code   244  lparser.o(.text)
    getunopr                                 0x08010577   Thumb Code    40  lparser.o(.text)
    subexpr                                  0x0801059f   Thumb Code   178  lparser.o(.text)
    expr                                     0x08010651   Thumb Code    18  lparser.o(.text)
    explist                                  0x08010663   Thumb Code    52  lparser.o(.text)
    check_conflict                           0x08010697   Thumb Code   136  lparser.o(.text)
    assignment                               0x0801071f   Thumb Code   312  lparser.o(.text)
    exprstat                                 0x08010857   Thumb Code    94  lparser.o(.text)
    gotostat                                 0x080108b5   Thumb Code    82  lparser.o(.text)
    retstat                                  0x08010907   Thumb Code   172  lparser.o(.text)
    skipnoopstat                             0x080109b3   Thumb Code    28  lparser.o(.text)
    checkrepeated                            0x080109cf   Thumb Code    74  lparser.o(.text)
    labelstat                                0x08010a19   Thumb Code   100  lparser.o(.text)
    localstat                                0x08010a7d   Thumb Code    94  lparser.o(.text)
    localfunc                                0x08010adb   Thumb Code    56  lparser.o(.text)
    funcname                                 0x08010b13   Thumb Code    52  lparser.o(.text)
    funcstat                                 0x08010b47   Thumb Code    58  lparser.o(.text)
    cond                                     0x08010b81   Thumb Code    40  lparser.o(.text)
    repeatstat                               0x08010ba9   Thumb Code   120  lparser.o(.text)
    block                                    0x08010c21   Thumb Code    30  lparser.o(.text)
    forbody                                  0x08010c3f   Thumb Code   248  lparser.o(.text)
    forlist                                  0x08010d37   Thumb Code   152  lparser.o(.text)
    exp1                                     0x08010dcf   Thumb Code    28  lparser.o(.text)
    fornum                                   0x08010deb   Thumb Code   150  lparser.o(.text)
    forstat                                  0x08010e81   Thumb Code   112  lparser.o(.text)
    whilestat                                0x08010ef1   Thumb Code   110  lparser.o(.text)
    test_then_block                          0x08010f5f   Thumb Code   196  lparser.o(.text)
    ifstat                                   0x08011023   Thumb Code    82  lparser.o(.text)
    statement                                0x08011075   Thumb Code   430  lparser.o(.text)
    statlist                                 0x08011223   Thumb Code    44  lparser.o(.text)
    mainfunc                                 0x0801124f   Thumb Code    76  lparser.o(.text)
    .text                                    0x0801132c   Section        0  lstate.o(.text)
    freestack                                0x08011355   Thumb Code    40  lstate.o(.text)
    close_state                              0x0801137d   Thumb Code    66  lstate.o(.text)
    init_registry                            0x080113bf   Thumb Code    94  lstate.o(.text)
    stack_init                               0x0801141d   Thumb Code   106  lstate.o(.text)
    f_luaopen                                0x08011487   Thumb Code    58  lstate.o(.text)
    preinit_thread                           0x080114c1   Thumb Code    56  lstate.o(.text)
    makeseed                                 0x080115c9   Thumb Code    72  lstate.o(.text)
    .text                                    0x0801173c   Section        0  lstring.o(.text)
    createstrobj                             0x0801189b   Thumb Code    52  lstring.o(.text)
    internshrstr                             0x080118eb   Thumb Code   188  lstring.o(.text)
    .text                                    0x08011b2c   Section        0  lstrlib.o(.text)
    str_len                                  0x08011b2d   Thumb Code    26  lstrlib.o(.text)
    posrelat                                 0x08011b47   Thumb Code    26  lstrlib.o(.text)
    str_sub                                  0x08011b61   Thumb Code   106  lstrlib.o(.text)
    str_reverse                              0x08011bcb   Thumb Code    94  lstrlib.o(.text)
    str_lower                                0x08011c29   Thumb Code    88  lstrlib.o(.text)
    str_upper                                0x08011c81   Thumb Code    88  lstrlib.o(.text)
    str_rep                                  0x08011cd9   Thumb Code   250  lstrlib.o(.text)
    str_byte                                 0x08011dd3   Thumb Code   144  lstrlib.o(.text)
    str_char                                 0x08011e63   Thumb Code    90  lstrlib.o(.text)
    writer                                   0x08011ebd   Thumb Code    28  lstrlib.o(.text)
    str_dump                                 0x08011ed9   Thumb Code    82  lstrlib.o(.text)
    check_capture                            0x08011f2b   Thumb Code    48  lstrlib.o(.text)
    capture_to_close                         0x08011f5b   Thumb Code    44  lstrlib.o(.text)
    classend                                 0x08011f87   Thumb Code   260  lstrlib.o(.text)
    match_class                              0x0801208b   Thumb Code   272  lstrlib.o(.text)
    matchbracketclass                        0x0801219b   Thumb Code   108  lstrlib.o(.text)
    singlematch                              0x08012207   Thumb Code    84  lstrlib.o(.text)
    matchbalance                             0x0801225b   Thumb Code    88  lstrlib.o(.text)
    min_expand                               0x080122b3   Thumb Code    58  lstrlib.o(.text)
    match_capture                            0x080122ed   Thumb Code    66  lstrlib.o(.text)
    end_capture                              0x0801232f   Thumb Code    72  lstrlib.o(.text)
    start_capture                            0x08012377   Thumb Code    72  lstrlib.o(.text)
    match                                    0x080123bf   Thumb Code   664  lstrlib.o(.text)
    max_expand                               0x08012657   Thumb Code    68  lstrlib.o(.text)
    lmemfind                                 0x0801269b   Thumb Code    80  lstrlib.o(.text)
    push_onecapture                          0x080126eb   Thumb Code   118  lstrlib.o(.text)
    push_captures                            0x08012761   Thumb Code    64  lstrlib.o(.text)
    nospecials                               0x080127a1   Thumb Code    42  lstrlib.o(.text)
    prepstate                                0x080127cb   Thumb Code    48  lstrlib.o(.text)
    reprepstate                              0x080127fb   Thumb Code     6  lstrlib.o(.text)
    str_find_aux                             0x08012801   Thumb Code   398  lstrlib.o(.text)
    str_find                                 0x0801298f   Thumb Code    14  lstrlib.o(.text)
    str_match                                0x0801299d   Thumb Code    14  lstrlib.o(.text)
    gmatch_aux                               0x080129ab   Thumb Code    84  lstrlib.o(.text)
    gmatch                                   0x080129ff   Thumb Code    92  lstrlib.o(.text)
    add_s                                    0x08012a5b   Thumb Code   216  lstrlib.o(.text)
    add_value                                0x08012b33   Thumb Code   198  lstrlib.o(.text)
    str_gsub                                 0x08012bf9   Thumb Code   344  lstrlib.o(.text)
    addquoted                                0x08012d51   Thumb Code   394  lstrlib.o(.text)
    scanformat                               0x08012edb   Thumb Code   174  lstrlib.o(.text)
    addlenmod                                0x08012f89   Thumb Code    58  lstrlib.o(.text)
    str_format                               0x08012fc3   Thumb Code   584  lstrlib.o(.text)
    digit                                    0x0801320b   Thumb Code    18  lstrlib.o(.text)
    getnum                                   0x0801321d   Thumb Code   240  lstrlib.o(.text)
    getnumlimit                              0x0801330d   Thumb Code    46  lstrlib.o(.text)
    initheader                               0x0801333b   Thumb Code    14  lstrlib.o(.text)
    getoption                                0x08013349   Thumb Code   398  lstrlib.o(.text)
    getdetails                               0x080134d7   Thumb Code   146  lstrlib.o(.text)
    packint                                  0x08013569   Thumb Code   118  lstrlib.o(.text)
    copywithendian                           0x080135df   Thumb Code    54  lstrlib.o(.text)
    str_pack                                 0x08013615   Thumb Code   872  lstrlib.o(.text)
    str_packsize                             0x0801397d   Thumb Code   134  lstrlib.o(.text)
    unpackint                                0x08013a03   Thumb Code   160  lstrlib.o(.text)
    str_unpack                               0x08013aa3   Thumb Code   640  lstrlib.o(.text)
    createmetatable                          0x08013d23   Thumb Code    88  lstrlib.o(.text)
    .text                                    0x08013db8   Section        0  ltable.o(.text)
    l_hashfloat                              0x08013db9   Thumb Code    82  ltable.o(.text)
    mainposition                             0x08013e0b   Thumb Code   292  ltable.o(.text)
    arrayindex                               0x08013f2f   Thumb Code    28  ltable.o(.text)
    findindex                                0x08013f4b   Thumb Code   136  ltable.o(.text)
    computesizes                             0x08014069   Thumb Code    56  ltable.o(.text)
    countint                                 0x080140a1   Thumb Code    44  ltable.o(.text)
    numusearray                              0x080140cd   Thumb Code    98  ltable.o(.text)
    numusehash                               0x0801412f   Thumb Code    78  ltable.o(.text)
    setarrayvector                           0x0801417d   Thumb Code    70  ltable.o(.text)
    setnodevector                            0x080141c3   Thumb Code   132  ltable.o(.text)
    rehash                                   0x08014247   Thumb Code    98  ltable.o(.text)
    getfreepos                               0x080142a9   Thumb Code    32  ltable.o(.text)
    getgeneric                               0x08014463   Thumb Code    54  ltable.o(.text)
    unbound_search                           0x08014793   Thumb Code    96  ltable.o(.text)
    .text                                    0x08014848   Section        0  ltablib.o(.text)
    checkfield                               0x08014849   Thumb Code    34  ltablib.o(.text)
    checktab                                 0x0801486b   Thumb Code   128  ltablib.o(.text)
    tinsert                                  0x080148eb   Thumb Code   134  ltablib.o(.text)
    tremove                                  0x08014971   Thumb Code   118  ltablib.o(.text)
    tmove                                    0x080149e7   Thumb Code   228  ltablib.o(.text)
    addfield                                 0x08014acb   Thumb Code    76  ltablib.o(.text)
    tconcat                                  0x08014b17   Thumb Code   148  ltablib.o(.text)
    pack                                     0x08014bab   Thumb Code    74  ltablib.o(.text)
    unpack                                   0x08014bf5   Thumb Code   126  ltablib.o(.text)
    l_randomizePivot                         0x08014c73   Thumb Code   292  ltablib.o(.text)
    set2                                     0x08014d97   Thumb Code    30  ltablib.o(.text)
    sort_comp                                0x08014db5   Thumb Code    98  ltablib.o(.text)
    partition                                0x08014e17   Thumb Code   166  ltablib.o(.text)
    choosePivot                              0x08014ebd   Thumb Code    24  ltablib.o(.text)
    auxsort                                  0x08014ed5   Thumb Code   340  ltablib.o(.text)
    sort                                     0x08015029   Thumb Code   104  ltablib.o(.text)
    .text                                    0x080150f4   Section        0  ltm.o(.text)
    .text                                    0x080153a4   Section        0  lundump.o(.text)
    error                                    0x080153a5   Thumb Code    28  lundump.o(.text)
    LoadBlock                                0x080153c1   Thumb Code    30  lundump.o(.text)
    LoadByte                                 0x080153df   Thumb Code    20  lundump.o(.text)
    LoadInt                                  0x080153f3   Thumb Code    18  lundump.o(.text)
    LoadNumber                               0x08015405   Thumb Code    18  lundump.o(.text)
    LoadInteger                              0x08015417   Thumb Code    18  lundump.o(.text)
    LoadString                               0x08015429   Thumb Code    98  lundump.o(.text)
    LoadCode                                 0x0801548b   Thumb Code    60  lundump.o(.text)
    LoadConstants                            0x080154c7   Thumb Code   244  lundump.o(.text)
    LoadDebug                                0x080155bb   Thumb Code   224  lundump.o(.text)
    LoadUpvalues                             0x0801569b   Thumb Code   110  lundump.o(.text)
    LoadFunction                             0x08015709   Thumb Code   104  lundump.o(.text)
    LoadProtos                               0x08015771   Thumb Code   152  lundump.o(.text)
    checkliteral                             0x08015809   Thumb Code    48  lundump.o(.text)
    fchecksize                               0x08015839   Thumb Code    44  lundump.o(.text)
    checkHeader                              0x08015865   Thumb Code   176  lundump.o(.text)
    .text                                    0x08015a68   Section        0  lutf8lib.o(.text)
    u_posrelat                               0x08015a69   Thumb Code    26  lutf8lib.o(.text)
    utf8_decode                              0x08015a83   Thumb Code   110  lutf8lib.o(.text)
    utflen                                   0x08015af1   Thumb Code   166  lutf8lib.o(.text)
    codepoint                                0x08015b97   Thumb Code   186  lutf8lib.o(.text)
    pushutfchar                              0x08015c51   Thumb Code    48  lutf8lib.o(.text)
    utfchar                                  0x08015c81   Thumb Code    78  lutf8lib.o(.text)
    byteoffset                               0x08015ccf   Thumb Code   216  lutf8lib.o(.text)
    iter_aux                                 0x08015da7   Thumb Code   124  lutf8lib.o(.text)
    iter_codes                               0x08015e23   Thumb Code    44  lutf8lib.o(.text)
    .text                                    0x08015f8c   Section        0  lvm.o(.text)
    forlimit                                 0x0801609d   Thumb Code   110  lvm.o(.text)
    l_strcmp                                 0x08016313   Thumb Code   118  lvm.o(.text)
    LTintfloat                               0x08016389   Thumb Code    92  lvm.o(.text)
    LEintfloat                               0x080163e5   Thumb Code    92  lvm.o(.text)
    LTnum                                    0x08016441   Thumb Code   102  lvm.o(.text)
    LEnum                                    0x080164a7   Thumb Code   194  lvm.o(.text)
    copy2buff                                0x080168bf   Thumb Code    80  lvm.o(.text)
    getcached                                0x08016c15   Thumb Code    84  lvm.o(.text)
    pushclosure                              0x08016c69   Thumb Code   140  lvm.o(.text)
    .text                                    0x08018c32   Section        0  lzio.o(.text)
    .text                                    0x08018cd0   Section        0  delay.o(.text)
    .text                                    0x08018d64   Section        0  exti.o(.text)
    .text                                    0x08018fb4   Section        0  gpio.o(.text)
    .text                                    0x08019104   Section        0  adc.o(.text)
    .text                                    0x080193c4   Section        0  pwm.o(.text)
    .text                                    0x080195d0   Section        0  usart.o(.text)
    .text                                    0x0801982c   Section        0  time_exti.o(.text)
    .text                                    0x08019b2c   Section        0  main.o(.text)
    .text                                    0x08019dd8   Section        0  lua_call.o(.text)
    .text                                    0x0801a4c8   Section        0  misc.o(.text)
    .text                                    0x0801a5a4   Section        0  stm32f10x_adc.o(.text)
    .text                                    0x0801a9f4   Section        0  stm32f10x_dma.o(.text)
    .text                                    0x0801ac48   Section        0  stm32f10x_exti.o(.text)
    .text                                    0x0801ad64   Section        0  stm32f10x_gpio.o(.text)
    .text                                    0x0801b0c0   Section        0  stm32f10x_rcc.o(.text)
    .text                                    0x0801b464   Section        0  stm32f10x_spi.o(.text)
    .text                                    0x0801b770   Section        0  stm32f10x_tim.o(.text)
    TI4_Config                               0x0801bc17   Thumb Code   130  stm32f10x_tim.o(.text)
    TI3_Config                               0x0801bcab   Thumb Code   122  stm32f10x_tim.o(.text)
    TI2_Config                               0x0801bd3f   Thumb Code   130  stm32f10x_tim.o(.text)
    TI1_Config                               0x0801bdd3   Thumb Code   108  stm32f10x_tim.o(.text)
    .text                                    0x0801c58c   Section        0  stm32f10x_usart.o(.text)
    .text                                    0x0801c994   Section       36  startup_stm32f10x_hd.o(.text)
    .text                                    0x0801c9b8   Section        0  system_stm32f10x.o(.text)
    SetSysClockTo72                          0x0801c9b9   Thumb Code   214  system_stm32f10x.o(.text)
    SetSysClock                              0x0801ca8f   Thumb Code     8  system_stm32f10x.o(.text)
    .text                                    0x0801cb98   Section        0  fgetc_u.o(.text)
    .text                                    0x0801cbd0   Section        0  uldiv.o(.text)
    .text                                    0x0801cc34   Section        0  ctype_o.o(.text)
    .text                                    0x0801cc3c   Section        0  toupper.o(.text)
    .text                                    0x0801cc48   Section        0  tolower.o(.text)
    .text                                    0x0801cc54   Section        0  rand.o(.text)
    .text                                    0x0801cc78   Section        0  localeconv.o(.text)
    .text                                    0x0801cc80   Section        0  mktime.o(.text)
    .text                                    0x0801cd28   Section        0  strftime.o(.text)
    _isoweek                                 0x0801cd29   Thumb Code    64  strftime.o(.text)
    _yeardays                                0x0801cfad   Thumb Code    42  strftime.o(.text)
    .text                                    0x0801d0bc   Section        0  memmovea.o(.text)
    .text                                    0x0801d0fc   Section        0  strstr.o(.text)
    .text                                    0x0801d120   Section        0  strncpy.o(.text)
    .text                                    0x0801d138   Section        0  strchr.o(.text)
    .text                                    0x0801d14c   Section        0  strlen.o(.text)
    .text                                    0x0801d15a   Section        0  strcmp.o(.text)
    .text                                    0x0801d176   Section        0  memchr.o(.text)
    .text                                    0x0801d18a   Section        0  memcmp.o(.text)
    .text                                    0x0801d1a4   Section        0  strcoll.o(.text)
    .text                                    0x0801d1a8   Section        0  strcpy.o(.text)
    .text                                    0x0801d1ba   Section        0  strncmp.o(.text)
    .text                                    0x0801d1d8   Section        0  strrchr.o(.text)
    .text                                    0x0801d1f8   Section        0  strspn.o(.text)
    .text                                    0x0801d214   Section        0  strpbrk.o(.text)
    .text                                    0x0801d234   Section        0  strerror.o(.text)
    .text                                    0x0801d318   Section        0  atol.o(.text)
    .text                                    0x0801d334   Section        0  cpp_init.o(.text)
    .text                                    0x0801d354   Section        0  aeabi_atexit.o(.text)
    .text                                    0x0801d382   Section        0  fadd.o(.text)
    .text                                    0x0801d432   Section        0  fmul.o(.text)
    .text                                    0x0801d496   Section        0  fdiv.o(.text)
    .text                                    0x0801d512   Section        0  dadd.o(.text)
    .text                                    0x0801d660   Section        0  dmul.o(.text)
    .text                                    0x0801d744   Section        0  ddiv.o(.text)
    .text                                    0x0801d822   Section        0  fflti.o(.text)
    .text                                    0x0801d834   Section        0  ffltui.o(.text)
    .text                                    0x0801d83e   Section        0  dflti.o(.text)
    .text                                    0x0801d860   Section        0  dfltl.o(.text)
    .text                                    0x0801d888   Section        0  ffixi.o(.text)
    .text                                    0x0801d8ba   Section        0  ffixui.o(.text)
    .text                                    0x0801d8e2   Section        0  dfixi.o(.text)
    .text                                    0x0801d920   Section        0  dfixl.o(.text)
    .text                                    0x0801d96a   Section        0  f2d.o(.text)
    .text                                    0x0801d990   Section       48  cdcmple.o(.text)
    .text                                    0x0801d9c0   Section       48  cdrcmple.o(.text)
    .text                                    0x0801d9f0   Section        0  d2f.o(.text)
    .text                                    0x0801da28   Section       20  cfcmple.o(.text)
    .text                                    0x0801da3c   Section       20  cfrcmple.o(.text)
    .text                                    0x0801da50   Section       62  setjmp.o(.text)
    .text                                    0x0801da8e   Section        0  semi.o(.text)
    .text                                    0x0801da8e   Section        0  uidiv.o(.text)
    .text                                    0x0801daba   Section        0  llshl.o(.text)
    .text                                    0x0801dad8   Section        0  llushr.o(.text)
    .text                                    0x0801daf8   Section        0  llsshr.o(.text)
    .text                                    0x0801db1c   Section        0  localtime_w.o(.text)
    .text                                    0x0801db28   Section        0  localtime_i.o(.text)
    .text                                    0x0801dbb4   Section        0  strtod.o(.text)
    _local_sscanf                            0x0801dbb5   Thumb Code    54  strtod.o(.text)
    .text                                    0x0801dc50   Section        0  strtof.o(.text)
    .text                                    0x0801dc6a   Section        0  strtol.o(.text)
    .text                                    0x0801dcda   Section        0  iusefp.o(.text)
    .text                                    0x0801dcda   Section        0  iusesemig.o(.text)
    .text                                    0x0801dcdc   Section        0  cpp_dtor.o(.text)
    .text                                    0x0801dce4   Section        0  cpp_signal.o(.text)
    .text                                    0x0801dce6   Section        0  cxa_finalize.o(.text)
    .text                                    0x0801dd28   Section        0  fepilogue.o(.text)
    .text                                    0x0801dd96   Section        0  fscalb.o(.text)
    .text                                    0x0801ddae   Section        0  fsqrt.o(.text)
    .text                                    0x0801de0c   Section        0  frnd.o(.text)
    .text                                    0x0801de48   Section        0  frem.o(.text)
    .text                                    0x0801de9a   Section        0  depilogue.o(.text)
    .text                                    0x0801df54   Section        0  dfltui.o(.text)
    .text                                    0x0801df6e   Section        0  dfixul.o(.text)
    .text                                    0x0801df9e   Section        0  ffixir.o(.text)
    .text                                    0x0801dfea   Section        0  fpstat.o(.text)
    .text                                    0x0801dfee   Section        0  arm_newhandler_noexceptions.o(.text)
    .text                                    0x0801dff2   Section        0  arm_exceptions_terminate.o(.text)
    .text                                    0x0801e00c   Section        0  arm_exceptions_globs.o(.text)
    [local to arm_exceptions_c]::__default_terminate_handler() 0x0801e00d   Thumb Code     6  arm_exceptions_globs.o(.text)
    .text                                    0x0801e05c   Section       36  init.o(.text)
    .text                                    0x0801e080   Section        0  scanf_fp.o(.text)
    _fp_value                                0x0801e081   Thumb Code   296  scanf_fp.o(.text)
    .text                                    0x0801e3e0   Section        0  _sgetc.o(.text)
    .text                                    0x0801e420   Section        0  _strtoul.o(.text)
    .text                                    0x0801e4be   Section        0  cpp_final.o(.text)
    .text                                    0x0801e4be   Section        0  iusesemip.o(.text)
    .text                                    0x0801e4c0   Section        0  cpp_memory.o(.text)
    .text                                    0x0801e4d4   Section        0  arm_exceptions_mem.o(.text)
    .text                                    0x0801e510   Section        0  _chval.o(.text)
    .text                                    0x0801e52c   Section        0  dfltul.o(.text)
    .text                                    0x0801e544   Section        0  dscalb.o(.text)
    i._ZN6String4initEv                      0x0801e572   Section        0  wstring.o(i._ZN6String4initEv)
    i._ZN6StringpLEc                         0x0801e57c   Section        0  stream.o(i._ZN6StringpLEc)
    i._ZNK6StringeqEPKc                      0x0801e58e   Section        0  lua_call.o(i._ZNK6StringeqEPKc)
    i._ZSt6strstrPcPKc                       0x0801e59e   Section        0  wstring.o(i._ZSt6strstrPcPKc)
    i._ZdaPv                                 0x0801e5ae   Section        0  array_del.o(i._ZdaPv)
    i._ZdlPv                                 0x0801e5b6   Section        0  delete.o(i._ZdlPv)
    i._Znaj                                  0x0801e5be   Section        0  array_new.o(i._Znaj)
    i._Znwj                                  0x0801e5c8   Section        0  new.o(i._Znwj)
    i.__0fprintf                             0x0801e5f0   Section        0  printfa.o(i.__0fprintf)
    i.__0snprintf                            0x0801e60c   Section        0  printfa.o(i.__0snprintf)
    i.__0sprintf                             0x0801e63c   Section        0  printfa.o(i.__0sprintf)
    i.__0vsprintf                            0x0801e664   Section        0  printfa.o(i.__0vsprintf)
    i.__ARM_fpclassifyf                      0x0801e688   Section        0  fpclassifyf.o(i.__ARM_fpclassifyf)
    i.__aeabi_errno_addr                     0x0801e6b0   Section        0  errno.o(i.__aeabi_errno_addr)
    i.__cxa_pure_virtual                     0x0801e6b8   Section        0  pure_virt.o(i.__cxa_pure_virtual)
    i.__free$realloc                         0x0801e6c0   Section        0  mallocr.o(i.__free$realloc)
    i.__malloc$realloc                       0x0801e71c   Section        0  mallocr.o(i.__malloc$realloc)
    i.__mathlib_flt_divzero                  0x0801e76c   Section        0  funder.o(i.__mathlib_flt_divzero)
    i.__mathlib_flt_infnan                   0x0801e776   Section        0  funder.o(i.__mathlib_flt_infnan)
    i.__mathlib_flt_infnan2                  0x0801e77c   Section        0  funder.o(i.__mathlib_flt_infnan2)
    i.__mathlib_flt_invalid                  0x0801e780   Section        0  funder.o(i.__mathlib_flt_invalid)
    i.__mathlib_flt_overflow                 0x0801e788   Section        0  funder.o(i.__mathlib_flt_overflow)
    i.__mathlib_flt_underflow                0x0801e792   Section        0  funder.o(i.__mathlib_flt_underflow)
    i.__mathlib_narrow                       0x0801e79c   Section        0  narrow.o(i.__mathlib_narrow)
    i.__mathlib_rredf2                       0x0801e7ac   Section        0  rredf.o(i.__mathlib_rredf2)
    i.__mathlib_tofloat                      0x0801e914   Section        0  narrow.o(i.__mathlib_tofloat)
    i.__read_errno                           0x0801e9d0   Section        0  errno.o(i.__read_errno)
    i.__scatterload_copy                     0x0801e9dc   Section       14  handlers.o(i.__scatterload_copy)
    i.__scatterload_null                     0x0801e9ea   Section        2  handlers.o(i.__scatterload_null)
    i.__scatterload_zeroinit                 0x0801e9ec   Section       14  handlers.o(i.__scatterload_zeroinit)
    i.__set_errno                            0x0801e9fc   Section        0  errno.o(i.__set_errno)
    i._fp_digits                             0x0801ea08   Section        0  printfa.o(i._fp_digits)
    _fp_digits                               0x0801ea09   Thumb Code   366  printfa.o(i._fp_digits)
    i._is_digit                              0x0801eb8c   Section        0  scanf_fp.o(i._is_digit)
    i._printf_core                           0x0801eb9c   Section        0  printfa.o(i._printf_core)
    _printf_core                             0x0801eb9d   Thumb Code  1744  printfa.o(i._printf_core)
    i._printf_post_padding                   0x0801f278   Section        0  printfa.o(i._printf_post_padding)
    _printf_post_padding                     0x0801f279   Thumb Code    36  printfa.o(i._printf_post_padding)
    i._printf_pre_padding                    0x0801f29c   Section        0  printfa.o(i._printf_pre_padding)
    _printf_pre_padding                      0x0801f29d   Thumb Code    46  printfa.o(i._printf_pre_padding)
    i._snputc                                0x0801f2ca   Section        0  printfa.o(i._snputc)
    _snputc                                  0x0801f2cb   Thumb Code    22  printfa.o(i._snputc)
    i._sputc                                 0x0801f2e0   Section        0  printfa.o(i._sputc)
    _sputc                                   0x0801f2e1   Thumb Code    10  printfa.o(i._sputc)
    i.acosf                                  0x0801f2ec   Section        0  acosf.o(i.acosf)
    i.asinf                                  0x0801f408   Section        0  asinf.o(i.asinf)
    i.atan2f                                 0x0801f52c   Section        0  atan2f.o(i.atan2f)
    i.atof                                   0x0801f788   Section        0  atof.o(i.atof)
    i.ceilf                                  0x0801f7b4   Section        0  ceilf.o(i.ceilf)
    i.cosf                                   0x0801f82c   Section        0  cosf.o(i.cosf)
    i.difftime                               0x0801f9a8   Section        0  difftime.o(i.difftime)
    i.expf                                   0x0801f9c8   Section        0  expf.o(i.expf)
    i.fgets                                  0x0801fb38   Section        0  fgets.o(i.fgets)
    i.floorf                                 0x0801fb74   Section        0  floorf.o(i.floorf)
    i.fmodf                                  0x0801fbf0   Section        0  fmodf.o(i.fmodf)
    i.fputc                                  0x0801fc5c   Section        0  fputc.o(i.fputc)
    i.fread                                  0x0801fc6e   Section        0  fread.o(i.fread)
    i.frexp                                  0x0801fca4   Section        0  frexp.o(i.frexp)
    i.frexpf                                 0x0801fcfc   Section        0  frexpf.o(i.frexpf)
    i.fwrite                                 0x0801fd42   Section        0  fwrite.o(i.fwrite)
    i.getc                                   0x0801fd66   Section        0  getc.o(i.getc)
    i.internal_alloc                         0x0801fd6c   Section        0  mallocr.o(i.internal_alloc)
    internal_alloc                           0x0801fd6d   Thumb Code    76  mallocr.o(i.internal_alloc)
    i.isspace                                0x0801fdbc   Section        0  wstring.o(i.isspace)
    i.log10f                                 0x0801fdd0   Section        0  log10f.o(i.log10f)
    i.log2f                                  0x0801ff84   Section        0  log2f.o(i.log2f)
    i.logf                                   0x0802011c   Section        0  logf.o(i.logf)
    i.powf                                   0x080202ac   Section        0  powf.o(i.powf)
    i.realloc                                0x080208cc   Section        0  mallocr.o(i.realloc)
    i.sinf                                   0x08020938   Section        0  sinf.o(i.sinf)
    i.sqrtf                                  0x08020ac0   Section        0  sqrtf.o(i.sqrtf)
    i.strtof                                 0x08020aec   Section        0  strtof.o(i.strtof)
    i.tanf                                   0x08020b00   Section        0  tanf.o(i.tanf)
    .constdata                               0x08020c74   Section      136  lapi.o(.constdata)
    version                                  0x08020cf8   Data           4  lapi.o(.constdata)
    .constdata                               0x08020cfc   Section      268  lbaselib.o(.constdata)
    base_funcs                               0x08020cfc   Data         200  lbaselib.o(.constdata)
    opts                                     0x08020dc4   Data          36  lbaselib.o(.constdata)
    optsnum                                  0x08020de8   Data          32  lbaselib.o(.constdata)
    .constdata                               0x08020e08   Section       64  lcorolib.o(.constdata)
    co_funcs                                 0x08020e08   Data          64  lcorolib.o(.constdata)
    .constdata                               0x08020e48   Section      257  lctype.o(.constdata)
    .constdata                               0x08020f4c   Section      160  ldblib.o(.constdata)
    HOOKKEY                                  0x08020f4c   Data           4  ldblib.o(.constdata)
    dblib                                    0x08020f50   Data         136  ldblib.o(.constdata)
    hooknames                                0x08020fd8   Data          20  ldblib.o(.constdata)
    .constdata                               0x08020fec   Section       88  linit.o(.constdata)
    loadedlibs                               0x08020fec   Data          88  linit.o(.constdata)
    .constdata                               0x08021044   Section      232  liolib.o(.constdata)
    iolib                                    0x08021044   Data          96  liolib.o(.constdata)
    flib                                     0x080210a4   Data          80  liolib.o(.constdata)
    mode                                     0x080210f4   Data          12  liolib.o(.constdata)
    modenames                                0x08021100   Data          16  liolib.o(.constdata)
    mode                                     0x08021110   Data          12  liolib.o(.constdata)
    modenames                                0x0802111c   Data          16  liolib.o(.constdata)
    .constdata                               0x0802112c   Section      148  llex.o(.constdata)
    luaX_tokens                              0x0802112c   Data         148  llex.o(.constdata)
    .constdata                               0x080211c0   Section      224  lmathlib.o(.constdata)
    mathlib                                  0x080211c0   Data         224  lmathlib.o(.constdata)
    .constdata                               0x080212a0   Section      104  loadlib.o(.constdata)
    CLIBS                                    0x080212a0   Data           4  loadlib.o(.constdata)
    pk_funcs                                 0x080212a4   Data          64  loadlib.o(.constdata)
    ll_funcs                                 0x080212e4   Data          16  loadlib.o(.constdata)
    searchers                                0x080212f4   Data          20  loadlib.o(.constdata)
    .constdata                               0x08021308   Section      264  lobject.o(.constdata)
    log_2                                    0x08021310   Data         256  lobject.o(.constdata)
    .constdata                               0x08021410   Section      239  lopcodes.o(.constdata)
    .constdata                               0x08021500   Section      172  loslib.o(.constdata)
    syslib                                   0x08021500   Data          96  loslib.o(.constdata)
    options                                  0x08021560   Data          24  loslib.o(.constdata)
    cat                                      0x08021578   Data          24  loslib.o(.constdata)
    catnames                                 0x08021590   Data          28  loslib.o(.constdata)
    .constdata                               0x080215ac   Section       42  lparser.o(.constdata)
    priority                                 0x080215ac   Data          42  lparser.o(.constdata)
    .constdata                               0x080215d8   Section      148  lstrlib.o(.constdata)
    nativeendian                             0x080215d8   Data           4  lstrlib.o(.constdata)
    strlib                                   0x080215dc   Data         144  lstrlib.o(.constdata)
    .constdata                               0x0802166c   Section       20  ltable.o(.constdata)
    dummynode_                               0x0802166c   Data          20  ltable.o(.constdata)
    .constdata                               0x08021680   Section       64  ltablib.o(.constdata)
    tab_funcs                                0x08021680   Data          64  ltablib.o(.constdata)
    .constdata                               0x080216c0   Section      152  ltm.o(.constdata)
    udatatypename                            0x080216c0   Data           9  ltm.o(.constdata)
    luaT_eventname                           0x080216f8   Data          96  ltm.o(.constdata)
    .constdata                               0x08021758   Section       72  lutf8lib.o(.constdata)
    funcs                                    0x08021758   Data          56  lutf8lib.o(.constdata)
    limits                                   0x08021790   Data          16  lutf8lib.o(.constdata)
    .constdata                               0x080217a0   Section     1792  gpio.o(.constdata)
    .constdata                               0x08021ea0   Section       48  expf.o(.constdata)
    twotokover4top                           0x08021ea0   Data          16  expf.o(.constdata)
    twotokover4bot                           0x08021eb0   Data          16  expf.o(.constdata)
    twotokover4all                           0x08021ec0   Data          16  expf.o(.constdata)
    .constdata                               0x08021ed0   Section       64  log10f.o(.constdata)
    logahi                                   0x08021ed0   Data          32  log10f.o(.constdata)
    logalo                                   0x08021ef0   Data          32  log10f.o(.constdata)
    .constdata                               0x08021f10   Section       64  log2f.o(.constdata)
    logahi                                   0x08021f10   Data          32  log2f.o(.constdata)
    logalo                                   0x08021f30   Data          32  log2f.o(.constdata)
    .constdata                               0x08021f50   Section       64  logf.o(.constdata)
    logahi                                   0x08021f50   Data          32  logf.o(.constdata)
    logalo                                   0x08021f70   Data          32  logf.o(.constdata)
    .constdata                               0x08021f90   Section      320  powf.o(.constdata)
    table                                    0x08021f90   Data         128  powf.o(.constdata)
    powersof2to1over16top                    0x08022010   Data          64  powf.o(.constdata)
    powersof2to1over16bot                    0x08022050   Data          64  powf.o(.constdata)
    powersof2to1over16all                    0x08022090   Data          64  powf.o(.constdata)
    .constdata                               0x080220d0   Section      129  ctype_o.o(.constdata)
    .constdata                               0x08022154   Section        4  ctype_o.o(.constdata)
    table                                    0x08022154   Data           4  ctype_o.o(.constdata)
    .constdata                               0x08022158   Section       12  mktime.o(.constdata)
    monlen                                   0x08022158   Data          12  mktime.o(.constdata)
    .constdata                               0x08022164   Section       86  strftime.o(.constdata)
    .constdata                               0x080221bc   Section       32  rredf.o(.constdata)
    twooverpi                                0x080221bc   Data          32  rredf.o(.constdata)
    .constdata                               0x080221dc   Section       56  ilconv.o(.constdata)
    .constdata                               0x08022214   Section       12  localtime_i.o(.constdata)
    monlen                                   0x08022214   Data          12  localtime_i.o(.constdata)
    .constdata__ZTV14HardwareSerial          0x08022220   Section       36  hardwareserial.o(.constdata__ZTV14HardwareSerial)
    .constdata__ZTV5Print                    0x08022244   Section       20  print.o(.constdata__ZTV5Print)
    .constdata__ZTV6Stream                   0x08022258   Section       36  hardwareserial.o(.constdata__ZTV6Stream)
    .constdata__ZTV7TwoWire                  0x0802227c   Section       16  wire.o(.constdata__ZTV7TwoWire)
    .constdata__ZTV8WireBase                 0x0802228c   Section       16  wirebase.o(.constdata__ZTV8WireBase)
    .conststring                             0x0802229c   Section      305  lbaselib.o(.conststring)
    .conststring                             0x080223d0   Section       59  lcorolib.o(.conststring)
    .conststring                             0x0802240c   Section      196  ldblib.o(.conststring)
    .conststring                             0x080224d0   Section       59  linit.o(.conststring)
    .conststring                             0x0802250c   Section      139  liolib.o(.conststring)
    .conststring                             0x08022598   Section      216  llex.o(.conststring)
    .conststring                             0x08022670   Section      176  lmathlib.o(.conststring)
    .conststring                             0x08022720   Section      294  loadlib.o(.conststring)
    .conststring                             0x08022848   Section      351  lopcodes.o(.conststring)
    .conststring                             0x080229a8   Section      201  loslib.o(.conststring)
    .conststring                             0x08022a74   Section      127  lstrlib.o(.conststring)
    .conststring                             0x08022af4   Section       29  ltablib.o(.conststring)
    .conststring                             0x08022b14   Section      235  ltm.o(.conststring)
    .conststring                             0x08022c00   Section       38  lutf8lib.o(.conststring)
    .conststring                             0x08022c28   Section       87  lua_call.o(.conststring)
    .conststring                             0x08022c80   Section        2  ilconv.o(.conststring)
    .init_array                              0x08022ca4   Section        4  hardwareserial.o(.init_array)
    .init_array                              0x08022ca8   Section        4  wire.o(.init_array)
    .init_array                              0x08022cac   Section        4  spi.o(.init_array)
    .init_array                              0x08022cb0   Section        0  cpp_init.o(.init_array)
    .data                                    0x20000000   Section        1  wstring.o(.data)
    dummy_writable_char                      0x20000000   Data           1  wstring.o(.data)
    .data                                    0x20000004   Section        4  delay.o(.data)
    System_ms                                0x20000004   Data           4  delay.o(.data)
    .data                                    0x20000008   Section       64  exti.o(.data)
    .data                                    0x20000048   Section       24  usart.o(.data)
    .data                                    0x20000060   Section       32  time_exti.o(.data)
    .data                                    0x20000080   Section        1  main.o(.data)
    .data                                    0x20000081   Section       20  stm32f10x_rcc.o(.data)
    APBAHBPrescTable                         0x20000081   Data          16  stm32f10x_rcc.o(.data)
    ADCPrescTable                            0x20000091   Data           4  stm32f10x_rcc.o(.data)
    .data                                    0x20000098   Section       20  system_stm32f10x.o(.data)
    .data                                    0x200000ac   Section        3  fgetc_u.o(.data)
    ungetc_sp                                0x200000ac   Data           1  fgetc_u.o(.data)
    ungetc_stack                             0x200000ad   Data           2  fgetc_u.o(.data)
    .data                                    0x200000b0   Section        4  stdin.o(.data)
    .data                                    0x200000b4   Section        4  stdout.o(.data)
    .data                                    0x200000b8   Section        4  stderr.o(.data)
    .data                                    0x200000bc   Section        4  rand.o(.data)
    _rand_state                              0x200000bc   Data           4  rand.o(.data)
    .data                                    0x200000c0   Section        4  errno.o(.data)
    _errno                                   0x200000c0   Data           4  errno.o(.data)
    .data                                    0x200000c4   Section        4  mvars.o(.data)
    .data                                    0x200000c8   Section        4  mvars.o(.data)
    .data                                    0x200000cc   Section        4  cpp_dtor.o(.data)
    ddtor_pointer                            0x200000cc   Data           4  cpp_dtor.o(.data)
    .data                                    0x200000d0   Section       12  cpp_memory.o(.data)
    handler_pointer                          0x200000d0   Data           4  cpp_memory.o(.data)
    eh                                       0x200000d4   Data           4  cpp_memory.o(.data)
    eh_p                                     0x200000d8   Data           4  cpp_memory.o(.data)
    .bss                                     0x200000dc   Section       72  hardwareserial.o(.bss)
    .bss                                     0x20000124   Section       88  wire.o(.bss)
    .bss                                     0x2000017c   Section       48  spi.o(.bss)
    .bss                                     0x200001ac   Section       16  adc.o(.bss)
    .bss                                     0x200001bc   Section      384  usart.o(.bss)
    .bss                                     0x2000033c   Section       44  localtime_w.o(.bss)
    _tms                                     0x2000033c   Data          44  localtime_w.o(.bss)
    HEAP                                     0x20000368   Section    32768  startup_stm32f10x_hd.o(HEAP)
    STACK                                    0x20008368   Section     4096  startup_stm32f10x_hd.o(STACK)

    Global Symbols

    Symbol Name                              Value     Ov Type        Size  Object(Section)

    BuildAttributes$$THM_ISAv4$P$D$K$B$S$PE$A:L22UL41UL21$X:L11$S22US41US21$IEEE1$IW$USESV6$~STKCKD$USESV7$~SHL$OTIME$ROPI$IEEEX$EBA8$UX$MICROLIB$REQ8$PRES8$EABIv2 0x00000000   Number         0  anon$$obj.o ABSOLUTE
    __ARM_use_no_argv                        0x00000000   Number         0  main.o ABSOLUTE
    _printf_a                                0x00000000   Number         0  stubs.o ABSOLUTE
    _printf_c                                0x00000000   Number         0  stubs.o ABSOLUTE
    _printf_charcount                        0x00000000   Number         0  stubs.o ABSOLUTE
    _printf_d                                0x00000000   Number         0  stubs.o ABSOLUTE
    _printf_e                                0x00000000   Number         0  stubs.o ABSOLUTE
    _printf_f                                0x00000000   Number         0  stubs.o ABSOLUTE
    _printf_flags                            0x00000000   Number         0  stubs.o ABSOLUTE
    _printf_fp_dec                           0x00000000   Number         0  stubs.o ABSOLUTE
    _printf_fp_hex                           0x00000000   Number         0  stubs.o ABSOLUTE
    _printf_g                                0x00000000   Number         0  stubs.o ABSOLUTE
    _printf_i                                0x00000000   Number         0  stubs.o ABSOLUTE
    _printf_int_dec                          0x00000000   Number         0  stubs.o ABSOLUTE
    _printf_l                                0x00000000   Number         0  stubs.o ABSOLUTE
    _printf_lc                               0x00000000   Number         0  stubs.o ABSOLUTE
    _printf_ll                               0x00000000   Number         0  stubs.o ABSOLUTE
    _printf_lld                              0x00000000   Number         0  stubs.o ABSOLUTE
    _printf_lli                              0x00000000   Number         0  stubs.o ABSOLUTE
    _printf_llo                              0x00000000   Number         0  stubs.o ABSOLUTE
    _printf_llu                              0x00000000   Number         0  stubs.o ABSOLUTE
    _printf_llx                              0x00000000   Number         0  stubs.o ABSOLUTE
    _printf_longlong_dec                     0x00000000   Number         0  stubs.o ABSOLUTE
    _printf_longlong_hex                     0x00000000   Number         0  stubs.o ABSOLUTE
    _printf_longlong_oct                     0x00000000   Number         0  stubs.o ABSOLUTE
    _printf_ls                               0x00000000   Number         0  stubs.o ABSOLUTE
    _printf_mbtowc                           0x00000000   Number         0  stubs.o ABSOLUTE
    _printf_n                                0x00000000   Number         0  stubs.o ABSOLUTE
    _printf_o                                0x00000000   Number         0  stubs.o ABSOLUTE
    _printf_p                                0x00000000   Number         0  stubs.o ABSOLUTE
    _printf_percent                          0x00000000   Number         0  stubs.o ABSOLUTE
    _printf_pre_padding                      0x00000000   Number         0  stubs.o ABSOLUTE
    _printf_return_value                     0x00000000   Number         0  stubs.o ABSOLUTE
    _printf_s                                0x00000000   Number         0  stubs.o ABSOLUTE
    _printf_sizespec                         0x00000000   Number         0  stubs.o ABSOLUTE
    _printf_str                              0x00000000   Number         0  stubs.o ABSOLUTE
    _printf_truncate_signed                  0x00000000   Number         0  stubs.o ABSOLUTE
    _printf_truncate_unsigned                0x00000000   Number         0  stubs.o ABSOLUTE
    _printf_u                                0x00000000   Number         0  stubs.o ABSOLUTE
    _printf_wc                               0x00000000   Number         0  stubs.o ABSOLUTE
    _printf_wctomb                           0x00000000   Number         0  stubs.o ABSOLUTE
    _printf_widthprec                        0x00000000   Number         0  stubs.o ABSOLUTE
    _printf_x                                0x00000000   Number         0  stubs.o ABSOLUTE
    SHT$$ARM_EXIDX$$Base                      - Undefined Reference
    SHT$$ARM_EXIDX$$Limit                     - Undefined Reference
    __ARM::default_unexpected_handler()       - Undefined Weak Reference
    typeinfo for Printable                    - Undefined Weak Reference
    __ARM_exceptions_buffer_required          - Undefined Weak Reference
    __aeabi_unwind_cpp_pr1                    - Undefined Weak Reference
    __aeabi_unwind_cpp_pr2                    - Undefined Weak Reference
    __alloca_longjmp                          - Undefined Weak Reference
    __alloca_setjmp                           - Undefined Weak Reference
    __cxa_begin_cleanup                       - Undefined Weak Reference
    __cxa_type_match                          - Undefined Weak Reference
    __decompress                              - Undefined Weak Reference
    _clock_init                               - Undefined Weak Reference
    _microlib_exit                            - Undefined Weak Reference
    __Vectors_Size                           0x00000130   Number         0  startup_stm32f10x_hd.o ABSOLUTE
    __Vectors                                0x08000000   Data           4  startup_stm32f10x_hd.o(RESET)
    __dso_handle                             0x08000000   Number         0  startup_stm32f10x_hd.o(RESET)
    __Vectors_End                            0x08000130   Data           0  startup_stm32f10x_hd.o(RESET)
    __main                                   0x08000131   Thumb Code     0  entry.o(.ARM.Collect$$$$00000000)
    _main_stk                                0x08000131   Thumb Code     0  entry2.o(.ARM.Collect$$$$00000001)
    _main_scatterload                        0x08000135   Thumb Code     0  entry5.o(.ARM.Collect$$$$00000004)
    __main_after_scatterload                 0x08000139   Thumb Code     0  entry5.o(.ARM.Collect$$$$00000004)
    _main_clock                              0x08000139   Thumb Code     0  entry7b.o(.ARM.Collect$$$$00000008)
    _main_cpp_init$empty                     0x08000139   Thumb Code     0  entry8a.o(.ARM.Collect$$$$00000009)
    _main_cpp_init                           0x0800013d   Thumb Code     0  entry8b.o(.ARM.Collect$$$$0000000A)
    _main_init                               0x0800013d   Thumb Code     0  entry9a.o(.ARM.Collect$$$$0000000B)
    __rt_final_cpp                           0x08000145   Thumb Code     0  entry10a.o(.ARM.Collect$$$$0000000D)
    __rt_final_cpp$nonempty                  0x08000145   Thumb Code     0  entry10b.o(.ARM.Collect$$$$0000000E)
    __rt_final_exit                          0x08000149   Thumb Code     0  entry11a.o(.ARM.Collect$$$$0000000F)
    GenerateSystemReset()                    0x0800014d   Thumb Code    16  main.o(.emb_text)
    null_func                                0x08000165   Thumb Code     2  arduino.o(.text)
    pinMode                                  0x08000167   Thumb Code    88  arduino.o(.text)
    digitalWrite                             0x080001bf   Thumb Code    42  arduino.o(.text)
    digitalRead                              0x080001e9   Thumb Code    34  arduino.o(.text)
    analogWrite                              0x0800020b   Thumb Code    30  arduino.o(.text)
    analogRead                               0x08000229   Thumb Code    42  arduino.o(.text)
    analogRead_DMA                           0x08000253   Thumb Code    34  arduino.o(.text)
    togglePin                                0x08000275   Thumb Code    32  arduino.o(.text)
    shiftOut                                 0x08000295   Thumb Code    72  arduino.o(.text)
    shiftIn                                  0x080002dd   Thumb Code    78  arduino.o(.text)
    tone                                     0x0800032b   Thumb Code    72  arduino.o(.text)
    map                                      0x08000373   Thumb Code    22  arduino.o(.text)
    fmap                                     0x08000389   Thumb Code   104  arduino.o(.text)
    pulseIn                                  0x080003f1   Thumb Code   140  arduino.o(.text)
    dtostrf                                  0x08000485   Thumb Code    50  dtostrf.o(.text)
    ltoa                                     0x080004c5   Thumb Code   144  itoa.o(.text)
    itoa                                     0x08000555   Thumb Code    20  itoa.o(.text)
    ultoa                                    0x08000569   Thumb Code   106  itoa.o(.text)
    utoa                                     0x080005d3   Thumb Code    20  itoa.o(.text)
    Print::write(const char*)                0x080005e9   Thumb Code    34  print.o(.text)
    Print::write(const void*, unsigned)      0x0800060b   Thumb Code    48  print.o(.text)
    Print::print(const String&)              0x0800063b   Thumb Code    34  print.o(.text)
    Print::print(char)                       0x0800065d   Thumb Code    18  print.o(.text)
    Print::print(const char*)                0x0800066f   Thumb Code    18  print.o(.text)
    Print::printNumber(unsigned long long, unsigned char) 0x08000681   Thumb Code   144  print.o(.text)
    Print::print(unsigned long long, int)    0x08000711   Thumb Code    54  print.o(.text)
    Print::print(unsigned char, int)         0x08000747   Thumb Code    22  print.o(.text)
    Print::print(long long, int)             0x0800075d   Thumb Code    68  print.o(.text)
    Print::print(int, int)                   0x080007a1   Thumb Code    22  print.o(.text)
    Print::print(unsigned, int)              0x080007b7   Thumb Code    22  print.o(.text)
    Print::print(long, int)                  0x080007cd   Thumb Code    22  print.o(.text)
    Print::print(unsigned long, int)         0x080007e3   Thumb Code    22  print.o(.text)
    Print::printFloat(double, unsigned char) 0x080007f9   Thumb Code   334  print.o(.text)
    Print::print(double, int)                0x08000947   Thumb Code    26  print.o(.text)
    Print::print(const __FlashStringHelper*) 0x08000961   Thumb Code    16  print.o(.text)
    Print::print(const Printable&)           0x08000971   Thumb Code    18  print.o(.text)
    Print::println()                         0x08000983   Thumb Code    28  print.o(.text)
    Print::println(const String&)            0x0800099f   Thumb Code    28  print.o(.text)
    Print::println(char)                     0x080009bb   Thumb Code    28  print.o(.text)
    Print::println(const char*)              0x080009d7   Thumb Code    28  print.o(.text)
    Print::println(unsigned char, int)       0x080009f3   Thumb Code    36  print.o(.text)
    Print::println(int, int)                 0x08000a17   Thumb Code    36  print.o(.text)
    Print::println(unsigned, int)            0x08000a3b   Thumb Code    36  print.o(.text)
    Print::println(long, int)                0x08000a5f   Thumb Code    34  print.o(.text)
    Print::println(unsigned long, int)       0x08000a81   Thumb Code    34  print.o(.text)
    Print::println(long long, int)           0x08000aa3   Thumb Code    44  print.o(.text)
    Print::println(unsigned long long, int)  0x08000acf   Thumb Code    44  print.o(.text)
    Print::println(double, int)              0x08000afb   Thumb Code    44  print.o(.text)
    Print::println(const __FlashStringHelper*) 0x08000b27   Thumb Code    28  print.o(.text)
    Print::println(const Printable&)         0x08000b43   Thumb Code    28  print.o(.text)
    Print::printf(const char*, ...)          0x08000b5f   Thumb Code    48  print.o(.text)
    HardwareSerial::HardwareSerial(USART_TypeDef*) 0x08000bb5   Thumb Code    66  hardwareserial.o(.text)
    HardwareSerial::HardwareSerial__sub_object(USART_TypeDef*) 0x08000bb5   Thumb Code     0  hardwareserial.o(.text)
    HardwareSerial::begin(unsigned)          0x08000bf7   Thumb Code    20  hardwareserial.o(.text)
    HardwareSerial::end()                    0x08000c0b   Thumb Code    14  hardwareserial.o(.text)
    HardwareSerial::attachInterrupt(void(*)()) 0x08000c19   Thumb Code    16  hardwareserial.o(.text)
    HardwareSerial::available()              0x08000c29   Thumb Code    26  hardwareserial.o(.text)
    HardwareSerial::peek()                   0x08000c43   Thumb Code    48  hardwareserial.o(.text)
    HardwareSerial::read()                   0x08000c73   Thumb Code    82  hardwareserial.o(.text)
    HardwareSerial::flush()                  0x08000cc5   Thumb Code    20  hardwareserial.o(.text)
    HardwareSerial::write(unsigned char)     0x08000cd9   Thumb Code    18  hardwareserial.o(.text)
    Stream::timedRead()                      0x08000d39   Thumb Code    50  stream.o(.text)
    Stream::timedPeek()                      0x08000d6b   Thumb Code    50  stream.o(.text)
    Stream::peekNextDigit()                  0x08000d9d   Thumb Code    52  stream.o(.text)
    Stream::setTimeout(unsigned long)        0x08000dd1   Thumb Code     4  stream.o(.text)
    Stream::findUntil(char*, unsigned, char*, unsigned) 0x08000dd5   Thumb Code   104  stream.o(.text)
    Stream::findUntil(char*, char*)          0x08000e3d   Thumb Code    44  stream.o(.text)
    Stream::find(char*)                      0x08000e69   Thumb Code    18  stream.o(.text)
    Stream::find(char*, unsigned)            0x08000e7b   Thumb Code    26  stream.o(.text)
    Stream::parseInt(char)                   0x08000e95   Thumb Code   108  stream.o(.text)
    Stream::parseInt()                       0x08000f01   Thumb Code    14  stream.o(.text)
    Stream::parseFloat(char)                 0x08000f0f   Thumb Code   186  stream.o(.text)
    Stream::parseFloat()                     0x08000fc9   Thumb Code    14  stream.o(.text)
    Stream::readBytes(char*, unsigned)       0x08000fd7   Thumb Code    48  stream.o(.text)
    Stream::readBytesUntil(char, char*, unsigned) 0x08001007   Thumb Code    60  stream.o(.text)
    Stream::readString()                     0x08001043   Thumb Code    48  stream.o(.text)
    Stream::readStringUntil(char)            0x08001073   Thumb Code    58  stream.o(.text)
    Stream::findMulti(Stream::MultiTarget*, int) 0x080010ad   Thumb Code   268  stream.o(.text)
    String::invalidate()                     0x080011c5   Thumb Code    24  wstring.o(.text)
    String::changeBuffer(unsigned)           0x080011dd   Thumb Code    30  wstring.o(.text)
    String::reserve(unsigned)                0x080011fb   Thumb Code    48  wstring.o(.text)
    String::concat(const char*, unsigned)    0x0800122b   Thumb Code    60  wstring.o(.text)
    operator +(const StringSumHelper&, const String&) 0x08001267   Thumb Code    30  wstring.o(.text)
    operator +(const StringSumHelper&, const char*) 0x08001285   Thumb Code    44  wstring.o(.text)
    String::concat(char)                     0x080012b1   Thumb Code    28  wstring.o(.text)
    operator +(const StringSumHelper&, char) 0x080012cd   Thumb Code    28  wstring.o(.text)
    String::concat(unsigned char)            0x080012e9   Thumb Code    36  wstring.o(.text)
    operator +(const StringSumHelper&, unsigned char) 0x0800130d   Thumb Code    28  wstring.o(.text)
    String::concat(int)                      0x08001329   Thumb Code    38  wstring.o(.text)
    operator +(const StringSumHelper&, int)  0x0800134f   Thumb Code    28  wstring.o(.text)
    String::concat(unsigned)                 0x0800136b   Thumb Code    38  wstring.o(.text)
    operator +(const StringSumHelper&, unsigned) 0x08001391   Thumb Code    28  wstring.o(.text)
    String::concat(long)                     0x080013ad   Thumb Code    38  wstring.o(.text)
    operator +(const StringSumHelper&, long) 0x080013d3   Thumb Code    28  wstring.o(.text)
    String::concat(unsigned long)            0x080013ef   Thumb Code    38  wstring.o(.text)
    operator +(const StringSumHelper&, unsigned long) 0x08001415   Thumb Code    28  wstring.o(.text)
    String::concat(float)                    0x08001431   Thumb Code    58  wstring.o(.text)
    operator +(const StringSumHelper&, float) 0x0800146b   Thumb Code    28  wstring.o(.text)
    String::concat(double)                   0x08001487   Thumb Code    54  wstring.o(.text)
    operator +(const StringSumHelper&, double) 0x080014bd   Thumb Code    36  wstring.o(.text)
    String::concat(const __FlashStringHelper*) 0x080014e1   Thumb Code    66  wstring.o(.text)
    operator +(const StringSumHelper&, const __FlashStringHelper*) 0x08001523   Thumb Code    28  wstring.o(.text)
    String::copy(const char*, unsigned)      0x0800153f   Thumb Code    42  wstring.o(.text)
    String::String(const char*)              0x08001569   Thumb Code    36  wstring.o(.text)
    String::String__sub_object(const char*)  0x08001569   Thumb Code     0  wstring.o(.text)
    String::operator =(const String&)        0x0800158d   Thumb Code    40  wstring.o(.text)
    String::String(const String&)            0x080015b5   Thumb Code    24  wstring.o(.text)
    String::String__sub_object(const String&) 0x080015b5   Thumb Code     0  wstring.o(.text)
    String::copy(const __FlashStringHelper*, unsigned) 0x080015cd   Thumb Code    42  wstring.o(.text)
    String::operator =(const __FlashStringHelper*) 0x080015f7   Thumb Code    38  wstring.o(.text)
    String::String(const __FlashStringHelper*) 0x0800161d   Thumb Code    24  wstring.o(.text)
    String::String__sub_object(const __FlashStringHelper*) 0x0800161d   Thumb Code     0  wstring.o(.text)
    String::operator =(const char*)          0x08001635   Thumb Code    38  wstring.o(.text)
    String::String(char)                     0x0800165b   Thumb Code    34  wstring.o(.text)
    String::String__sub_object(char)         0x0800165b   Thumb Code     0  wstring.o(.text)
    String::String(unsigned char, unsigned char) 0x0800167d   Thumb Code    36  wstring.o(.text)
    String::String__sub_object(unsigned char, unsigned char) 0x0800167d   Thumb Code     0  wstring.o(.text)
    String::String(int, unsigned char)       0x080016a1   Thumb Code    40  wstring.o(.text)
    String::String__sub_object(int, unsigned char) 0x080016a1   Thumb Code     0  wstring.o(.text)
    String::String(unsigned, unsigned char)  0x080016c9   Thumb Code    40  wstring.o(.text)
    String::String__sub_object(unsigned, unsigned char) 0x080016c9   Thumb Code     0  wstring.o(.text)
    String::String(long, unsigned char)      0x080016f1   Thumb Code    40  wstring.o(.text)
    String::String__sub_object(long, unsigned char) 0x080016f1   Thumb Code     0  wstring.o(.text)
    String::String(unsigned long, unsigned char) 0x08001719   Thumb Code    40  wstring.o(.text)
    String::String__sub_object(unsigned long, unsigned char) 0x08001719   Thumb Code     0  wstring.o(.text)
    String::String(float, unsigned char)     0x08001741   Thumb Code    60  wstring.o(.text)
    String::String__sub_object(float, unsigned char) 0x08001741   Thumb Code     0  wstring.o(.text)
    String::String(double, unsigned char)    0x0800177d   Thumb Code    56  wstring.o(.text)
    String::String__sub_object(double, unsigned char) 0x0800177d   Thumb Code     0  wstring.o(.text)
    String::~String()                        0x080017b5   Thumb Code    14  wstring.o(.text)
    String::~String__sub_object()            0x080017b5   Thumb Code     0  wstring.o(.text)
    String::concat(const String&)            0x080017c3   Thumb Code    18  wstring.o(.text)
    String::concat(const char*)              0x080017d5   Thumb Code    32  wstring.o(.text)
    String::compareTo(const String&) const   0x080017f5   Thumb Code    58  wstring.o(.text)
    String::equals(const String&) const      0x0800182f   Thumb Code    32  wstring.o(.text)
    String::equals(const char*) const        0x0800184f   Thumb Code    58  wstring.o(.text)
    String::operator <(const String&) const  0x08001889   Thumb Code    18  wstring.o(.text)
    String::operator >(const String&) const  0x0800189b   Thumb Code    26  wstring.o(.text)
    String::operator <=(const String&) const 0x080018b5   Thumb Code    26  wstring.o(.text)
    String::operator >=(const String&) const 0x080018cf   Thumb Code    20  wstring.o(.text)
    String::equalsIgnoreCase(const String&) const 0x080018e3   Thumb Code    80  wstring.o(.text)
    String::startsWith(const String&, unsigned) const 0x08001933   Thumb Code    52  wstring.o(.text)
    String::startsWith(const String&) const  0x08001967   Thumb Code    30  wstring.o(.text)
    String::endsWith(const String&) const    0x08001985   Thumb Code    52  wstring.o(.text)
    String::operator [](unsigned) const      0x080019b9   Thumb Code    22  wstring.o(.text)
    String::charAt(unsigned) const           0x080019cf   Thumb Code    16  wstring.o(.text)
    String::setCharAt(unsigned, char)        0x080019df   Thumb Code    12  wstring.o(.text)
    String::operator [](unsigned)            0x080019eb   Thumb Code    28  wstring.o(.text)
    String::getBytes(unsigned char*, unsigned, unsigned) const 0x08001a07   Thumb Code    72  wstring.o(.text)
    String::indexOf(char, unsigned) const    0x08001a4f   Thumb Code    56  wstring.o(.text)
    String::indexOf(char) const              0x08001a87   Thumb Code    18  wstring.o(.text)
    String::indexOf(const String&, unsigned) const 0x08001a99   Thumb Code    50  wstring.o(.text)
    String::indexOf(const String&) const     0x08001acb   Thumb Code    18  wstring.o(.text)
    String::lastIndexOf(char, unsigned) const 0x08001add   Thumb Code    76  wstring.o(.text)
    String::lastIndexOf(char) const          0x08001b29   Thumb Code    20  wstring.o(.text)
    String::lastIndexOf(const String&, unsigned) const 0x08001b3d   Thumb Code    94  wstring.o(.text)
    String::lastIndexOf(const String&) const 0x08001b9b   Thumb Code    22  wstring.o(.text)
    String::substring(unsigned, unsigned) const 0x08001bb1   Thumb Code    80  wstring.o(.text)
    String::replace(char, char)              0x08001c01   Thumb Code    34  wstring.o(.text)
    String::replace(const String&, const String&) 0x08001c23   Thumb Code   300  wstring.o(.text)
    String::remove(unsigned, unsigned)       0x08001d4f   Thumb Code    74  wstring.o(.text)
    String::remove(unsigned)                 0x08001d99   Thumb Code    20  wstring.o(.text)
    String::toLowerCase()                    0x08001dad   Thumb Code    34  wstring.o(.text)
    String::toUpperCase()                    0x08001dcf   Thumb Code    42  wstring.o(.text)
    String::trim()                           0x08001df9   Thumb Code    88  wstring.o(.text)
    String::toInt() const                    0x08001e51   Thumb Code    20  wstring.o(.text)
    String::toFloat() const                  0x08001e65   Thumb Code    26  wstring.o(.text)
    TwoWire::set_scl(bool)                   0x08001e81   Thumb Code    44  wire.o(.text)
    TwoWire::set_sda(bool)                   0x08001ead   Thumb Code    26  wire.o(.text)
    TwoWire::i2c_start()                     0x08001ec7   Thumb Code    22  wire.o(.text)
    TwoWire::i2c_stop()                      0x08001edd   Thumb Code    30  wire.o(.text)
    TwoWire::i2c_get_ack()                   0x08001efb   Thumb Code    58  wire.o(.text)
    TwoWire::i2c_send_ack()                  0x08001f35   Thumb Code    30  wire.o(.text)
    TwoWire::i2c_send_nack()                 0x08001f53   Thumb Code    30  wire.o(.text)
    TwoWire::i2c_shift_in()                  0x08001f71   Thumb Code    62  wire.o(.text)
    TwoWire::i2c_shift_out(unsigned char)    0x08001faf   Thumb Code    60  wire.o(.text)
    TwoWire::process()                       0x08001feb   Thumb Code   170  wire.o(.text)
    TwoWire::TwoWire(unsigned char, unsigned char, unsigned char) 0x08002095   Thumb Code    26  wire.o(.text)
    TwoWire::TwoWire__sub_object(unsigned char, unsigned char, unsigned char) 0x08002095   Thumb Code     0  wire.o(.text)
    TwoWire::begin(unsigned char)            0x080020af   Thumb Code    58  wire.o(.text)
    TwoWire::~TwoWire()                      0x080020e9   Thumb Code    22  wire.o(.text)
    TwoWire::~TwoWire__sub_object()          0x080020e9   Thumb Code     0  wire.o(.text)
    SPIClass::SPIClass(SPI_TypeDef*)         0x0800212d   Thumb Code     4  spi.o(.text)
    SPIClass::SPIClass__sub_object(SPI_TypeDef*) 0x0800212d   Thumb Code     0  spi.o(.text)
    SPIClass::SPI_Settings(SPI_TypeDef*, unsigned short, unsigned short, unsigned short, unsigned short, unsigned short, unsigned short) 0x08002131   Thumb Code   128  spi.o(.text)
    SPIClass::begin()                        0x080021b1   Thumb Code   140  spi.o(.text)
    SPIClass::setDataMode(unsigned char)     0x0800223d   Thumb Code    74  spi.o(.text)
    SPIClass::setBitOrder(unsigned short)    0x08002287   Thumb Code    28  spi.o(.text)
    SPIClass::setClock(unsigned short)       0x080022a3   Thumb Code    88  spi.o(.text)
    SPIClass::begin(unsigned, unsigned short, unsigned short) 0x080022fb   Thumb Code    46  spi.o(.text)
    SPIClass::beginSlave()                   0x08002329   Thumb Code    36  spi.o(.text)
    SPIClass::beginTransactionSlave()        0x0800234d   Thumb Code    12  spi.o(.text)
    SPIClass::beginTransaction(SPISettings)  0x08002359   Thumb Code     2  spi.o(.text)
    SPIClass::endTransaction()               0x0800235b   Thumb Code     2  spi.o(.text)
    SPIClass::end()                          0x0800235d   Thumb Code    14  spi.o(.text)
    SPIClass::setDataSize(unsigned short)    0x0800236b   Thumb Code    18  spi.o(.text)
    SPIClass::read(unsigned char*, unsigned) 0x0800237d   Thumb Code    50  spi.o(.text)
    SPIClass::read()                         0x080023af   Thumb Code    20  spi.o(.text)
    SPIClass::write(unsigned short)          0x080023c3   Thumb Code    30  spi.o(.text)
    SPIClass::write(const unsigned char*, unsigned) 0x080023e1   Thumb Code    46  spi.o(.text)
    SPIClass::transfer(unsigned char) const  0x0800240f   Thumb Code    54  spi.o(.text)
    SPIClass::transfer16(unsigned short) const 0x08002445   Thumb Code    54  spi.o(.text)
    SPIClass::send(unsigned char*, unsigned) 0x0800247b   Thumb Code    46  spi.o(.text)
    SPIClass::send(unsigned char)            0x080024a9   Thumb Code    20  spi.o(.text)
    SPIClass::recv()                         0x080024bd   Thumb Code    12  spi.o(.text)
    lua_checkstack                           0x08002571   Thumb Code   106  lapi.o(.text)
    lua_xmove                                0x080025db   Thumb Code    52  lapi.o(.text)
    lua_atpanic                              0x0800260f   Thumb Code    12  lapi.o(.text)
    lua_version                              0x0800261b   Thumb Code    14  lapi.o(.text)
    lua_absindex                             0x08002629   Thumb Code    30  lapi.o(.text)
    lua_gettop                               0x08002647   Thumb Code    16  lapi.o(.text)
    lua_settop                               0x08002657   Thumb Code    62  lapi.o(.text)
    lua_rotate                               0x080026c3   Thumb Code    80  lapi.o(.text)
    lua_copy                                 0x08002713   Thumb Code   100  lapi.o(.text)
    lua_pushvalue                            0x08002777   Thumb Code    30  lapi.o(.text)
    lua_type                                 0x08002795   Thumb Code    36  lapi.o(.text)
    lua_typename                             0x080027b9   Thumb Code    12  lapi.o(.text)
    lua_iscfunction                          0x080027c5   Thumb Code    36  lapi.o(.text)
    lua_isinteger                            0x080027e9   Thumb Code    30  lapi.o(.text)
    lua_isnumber                             0x08002807   Thumb Code    40  lapi.o(.text)
    lua_isstring                             0x0800282f   Thumb Code    44  lapi.o(.text)
    lua_isuserdata                           0x0800285b   Thumb Code    36  lapi.o(.text)
    lua_rawequal                             0x0800287f   Thumb Code    58  lapi.o(.text)
    lua_arith                                0x080028b9   Thumb Code    96  lapi.o(.text)
    lua_compare                              0x08002919   Thumb Code   110  lapi.o(.text)
    lua_stringtonumber                       0x08002987   Thumb Code    30  lapi.o(.text)
    lua_tonumberx                            0x080029a5   Thumb Code    60  lapi.o(.text)
    lua_tointegerx                           0x080029e1   Thumb Code    62  lapi.o(.text)
    lua_toboolean                            0x08002a1f   Thumb Code    38  lapi.o(.text)
    lua_tolstring                            0x08002a45   Thumb Code   114  lapi.o(.text)
    lua_rawlen                               0x08002ab7   Thumb Code    70  lapi.o(.text)
    lua_tocfunction                          0x08002afd   Thumb Code    42  lapi.o(.text)
    lua_touserdata                           0x08002b27   Thumb Code    44  lapi.o(.text)
    lua_tothread                             0x08002b53   Thumb Code    30  lapi.o(.text)
    lua_topointer                            0x08002b71   Thumb Code    90  lapi.o(.text)
    lua_pushnil                              0x08002bcb   Thumb Code    14  lapi.o(.text)
    lua_pushnumber                           0x08002bd9   Thumb Code    16  lapi.o(.text)
    lua_pushinteger                          0x08002be9   Thumb Code    16  lapi.o(.text)
    lua_pushlstring                          0x08002bf9   Thumb Code    76  lapi.o(.text)
    lua_pushstring                           0x08002c45   Thumb Code    70  lapi.o(.text)
    lua_pushvfstring                         0x08002c8b   Thumb Code    36  lapi.o(.text)
    lua_pushfstring                          0x08002caf   Thumb Code    48  lapi.o(.text)
    lua_pushcclosure                         0x08002cdf   Thumb Code   120  lapi.o(.text)
    lua_pushboolean                          0x08002d57   Thumb Code    24  lapi.o(.text)
    lua_pushlightuserdata                    0x08002d6f   Thumb Code    16  lapi.o(.text)
    lua_pushthread                           0x08002d7f   Thumb Code    34  lapi.o(.text)
    lua_getglobal                            0x08002e4f   Thumb Code    36  lapi.o(.text)
    lua_gettable                             0x08002e73   Thumb Code   150  lapi.o(.text)
    lua_getfield                             0x08002f09   Thumb Code    34  lapi.o(.text)
    lua_geti                                 0x08002f2b   Thumb Code   168  lapi.o(.text)
    lua_rawget                               0x08002fd3   Thumb Code    56  lapi.o(.text)
    lua_rawgeti                              0x0800300b   Thumb Code    58  lapi.o(.text)
    lua_rawgetp                              0x08003045   Thumb Code    66  lapi.o(.text)
    lua_createtable                          0x08003087   Thumb Code    72  lapi.o(.text)
    lua_getmetatable                         0x080030cf   Thumb Code    96  lapi.o(.text)
    lua_getuservalue                         0x0800312f   Thumb Code    46  lapi.o(.text)
    lua_setglobal                            0x0800320f   Thumb Code    36  lapi.o(.text)
    lua_settable                             0x08003233   Thumb Code   142  lapi.o(.text)
    lua_setfield                             0x080032c1   Thumb Code    34  lapi.o(.text)
    lua_seti                                 0x080032e3   Thumb Code   166  lapi.o(.text)
    lua_rawset                               0x08003389   Thumb Code   110  lapi.o(.text)
    lua_rawseti                              0x080033f7   Thumb Code    94  lapi.o(.text)
    lua_rawsetp                              0x08003455   Thumb Code   110  lapi.o(.text)
    lua_setmetatable                         0x080034c3   Thumb Code   182  lapi.o(.text)
    lua_setuservalue                         0x08003579   Thumb Code    94  lapi.o(.text)
    lua_callk                                0x080035d7   Thumb Code    92  lapi.o(.text)
    lua_pcallk                               0x08003647   Thumb Code   196  lapi.o(.text)
    lua_load                                 0x0800370b   Thumb Code   132  lapi.o(.text)
    lua_dump                                 0x0800378f   Thumb Code    58  lapi.o(.text)
    lua_status                               0x080037c9   Thumb Code     6  lapi.o(.text)
    lua_gc                                   0x080037cf   Thumb Code   220  lapi.o(.text)
    lua_error                                0x080038ab   Thumb Code    14  lapi.o(.text)
    lua_next                                 0x080038b9   Thumb Code    56  lapi.o(.text)
    lua_concat                               0x080038f1   Thumb Code    76  lapi.o(.text)
    lua_len                                  0x0800393d   Thumb Code    34  lapi.o(.text)
    lua_getallocf                            0x0800395f   Thumb Code    16  lapi.o(.text)
    lua_setallocf                            0x0800396f   Thumb Code    10  lapi.o(.text)
    lua_newuserdata                          0x08003979   Thumb Code    52  lapi.o(.text)
    lua_getupvalue                           0x08003a33   Thumb Code    94  lapi.o(.text)
    lua_setupvalue                           0x08003a91   Thumb Code   164  lapi.o(.text)
    lua_upvalueid                            0x08003b61   Thumb Code    72  lapi.o(.text)
    lua_upvaluejoin                          0x08003ba9   Thumb Code   122  lapi.o(.text)
    luaL_where                               0x08003e27   Thumb Code    64  lauxlib.o(.text)
    luaL_error                               0x08003e67   Thumb Code    52  lauxlib.o(.text)
    luaL_checkstack                          0x08003e9b   Thumb Code    50  lauxlib.o(.text)
    luaL_traceback                           0x08003ecd   Thumb Code   228  lauxlib.o(.text)
    luaL_argerror                            0x08003fb1   Thumb Code   122  lauxlib.o(.text)
    luaL_getmetafield                        0x0800402b   Thumb Code   402  lauxlib.o(.text)
    luaL_fileresult                          0x08004245   Thumb Code    90  lauxlib.o(.text)
    luaL_execresult                          0x0800429f   Thumb Code    68  lauxlib.o(.text)
    luaL_newmetatable                        0x080042e3   Thumb Code    86  lauxlib.o(.text)
    luaL_setmetatable                        0x08004339   Thumb Code    28  lauxlib.o(.text)
    luaL_testudata                           0x08004355   Thumb Code    78  lauxlib.o(.text)
    luaL_checkudata                          0x080043a3   Thumb Code    40  lauxlib.o(.text)
    luaL_checklstring                        0x080043cb   Thumb Code    40  lauxlib.o(.text)
    luaL_optlstring                          0x080043f3   Thumb Code    58  lauxlib.o(.text)
    luaL_checkoption                         0x0800442d   Thumb Code    96  lauxlib.o(.text)
    luaL_checktype                           0x0800448d   Thumb Code    32  lauxlib.o(.text)
    luaL_checkany                            0x080044ad   Thumb Code    30  lauxlib.o(.text)
    luaL_checknumber                         0x080044cb   Thumb Code    36  lauxlib.o(.text)
    luaL_optnumber                           0x080044ef   Thumb Code    34  lauxlib.o(.text)
    luaL_checkinteger                        0x08004539   Thumb Code    34  lauxlib.o(.text)
    luaL_optinteger                          0x0800455b   Thumb Code    34  lauxlib.o(.text)
    luaL_prepbuffsize                        0x080046b7   Thumb Code   122  lauxlib.o(.text)
    luaL_addlstring                          0x08004731   Thumb Code    44  lauxlib.o(.text)
    luaL_addstring                           0x0800475d   Thumb Code    26  lauxlib.o(.text)
    luaL_pushresult                          0x08004777   Thumb Code    60  lauxlib.o(.text)
    luaL_pushresultsize                      0x080047b3   Thumb Code    20  lauxlib.o(.text)
    luaL_addvalue                            0x080047c7   Thumb Code    94  lauxlib.o(.text)
    luaL_buffinit                            0x08004825   Thumb Code    20  lauxlib.o(.text)
    luaL_buffinitsize                        0x08004839   Thumb Code    26  lauxlib.o(.text)
    luaL_ref                                 0x08004853   Thumb Code   124  lauxlib.o(.text)
    luaL_unref                               0x080048cf   Thumb Code    62  lauxlib.o(.text)
    luaL_loadfilex                           0x08004a17   Thumb Code   384  lauxlib.o(.text)
    luaL_loadbufferx                         0x08004bb3   Thumb Code    40  lauxlib.o(.text)
    luaL_loadstring                          0x08004bdb   Thumb Code    32  lauxlib.o(.text)
    luaL_callmeta                            0x08004bfb   Thumb Code    62  lauxlib.o(.text)
    luaL_len                                 0x08004c39   Thumb Code    54  lauxlib.o(.text)
    luaL_tolstring                           0x08004c6f   Thumb Code   226  lauxlib.o(.text)
    luaL_setfuncs                            0x08004d51   Thumb Code    84  lauxlib.o(.text)
    luaL_getsubtable                         0x08004da5   Thumb Code    80  lauxlib.o(.text)
    luaL_requiref                            0x08004df5   Thumb Code   156  lauxlib.o(.text)
    luaL_gsub                                0x08004e91   Thumb Code   258  lauxlib.o(.text)
    luaL_newstate                            0x08004fdb   Thumb Code    26  lauxlib.o(.text)
    luaL_checkversion_                       0x08004ff5   Thumb Code   100  lauxlib.o(.text)
    luaopen_base                             0x08005b43   Thumb Code    70  lbaselib.o(.text)
    luaK_codeABC                             0x08005dbf   Thumb Code    38  lcode.o(.text)
    luaK_nil                                 0x08005de5   Thumb Code   144  lcode.o(.text)
    luaK_concat                              0x08005e75   Thumb Code    68  lcode.o(.text)
    luaK_codeABx                             0x08005eb9   Thumb Code    30  lcode.o(.text)
    luaK_jump                                0x08005ed7   Thumb Code    40  lcode.o(.text)
    luaK_ret                                 0x08005eff   Thumb Code    26  lcode.o(.text)
    luaK_getlabel                            0x08005f43   Thumb Code    10  lcode.o(.text)
    luaK_patchtohere                         0x08005fa3   Thumb Code    26  lcode.o(.text)
    luaK_patchlist                           0x08005fbd   Thumb Code    40  lcode.o(.text)
    luaK_patchclose                          0x08005fe5   Thumb Code   108  lcode.o(.text)
    luaK_codek                               0x08006065   Thumb Code    58  lcode.o(.text)
    luaK_checkstack                          0x0800609f   Thumb Code    38  lcode.o(.text)
    luaK_reserveregs                         0x080060c5   Thumb Code    26  lcode.o(.text)
    luaK_stringK                             0x080061f7   Thumb Code    32  lcode.o(.text)
    luaK_intK                                0x08006217   Thumb Code    36  lcode.o(.text)
    luaK_setreturns                          0x08006291   Thumb Code   106  lcode.o(.text)
    luaK_setoneret                           0x080062fb   Thumb Code    70  lcode.o(.text)
    luaK_dischargevars                       0x08006341   Thumb Code   128  lcode.o(.text)
    luaK_exp2nextreg                         0x080065c5   Thumb Code    46  lcode.o(.text)
    luaK_exp2anyreg                          0x080065f3   Thumb Code    68  lcode.o(.text)
    luaK_exp2anyregup                        0x08006637   Thumb Code    30  lcode.o(.text)
    luaK_exp2val                             0x08006655   Thumb Code    34  lcode.o(.text)
    luaK_exp2RK                              0x08006677   Thumb Code   156  lcode.o(.text)
    luaK_storevar                            0x08006713   Thumb Code   134  lcode.o(.text)
    luaK_self                                0x08006799   Thumb Code    82  lcode.o(.text)
    luaK_goiftrue                            0x08006879   Thumb Code   104  lcode.o(.text)
    luaK_goiffalse                           0x080068e1   Thumb Code    84  lcode.o(.text)
    luaK_indexed                             0x080069c1   Thumb Code    44  lcode.o(.text)
    luaK_fixline                             0x08006af9   Thumb Code    14  lcode.o(.text)
    luaK_prefix                              0x08006c03   Thumb Code    88  lcode.o(.text)
    luaK_infix                               0x08006c5b   Thumb Code   124  lcode.o(.text)
    luaK_posfix                              0x08006cd7   Thumb Code   308  lcode.o(.text)
    luaK_setlist                             0x08006e0b   Thumb Code   108  lcode.o(.text)
    luaopen_coroutine                        0x0800710d   Thumb Code    38  lcorolib.o(.text)
    luaopen_debug                            0x08007c3d   Thumb Code    38  ldblib.o(.text)
    lua_sethook                              0x08007cc9   Thumb Code    42  ldebug.o(.text)
    lua_gethook                              0x08007cf3   Thumb Code     6  ldebug.o(.text)
    lua_gethookmask                          0x08007cf9   Thumb Code     8  ldebug.o(.text)
    lua_gethookcount                         0x08007d01   Thumb Code     6  ldebug.o(.text)
    lua_getstack                             0x08007d07   Thumb Code    56  ldebug.o(.text)
    lua_getlocal                             0x08007e0b   Thumb Code   100  ldebug.o(.text)
    lua_setlocal                             0x08007e6f   Thumb Code    64  ldebug.o(.text)
    lua_getinfo                              0x08008431   Thumb Code   140  ldebug.o(.text)
    luaG_errormsg                            0x080085f5   Thumb Code    74  ldebug.o(.text)
    luaG_addinfo                             0x0800863f   Thumb Code    58  ldebug.o(.text)
    luaG_runerror                            0x08008679   Thumb Code    76  ldebug.o(.text)
    luaG_typeerror                           0x080086c5   Thumb Code    52  ldebug.o(.text)
    luaG_concaterror                         0x080086f9   Thumb Code    42  ldebug.o(.text)
    luaG_opinterror                          0x08008723   Thumb Code    48  ldebug.o(.text)
    luaG_tointerror                          0x08008753   Thumb Code    58  ldebug.o(.text)
    luaG_ordererror                          0x0800878d   Thumb Code    68  ldebug.o(.text)
    luaG_traceexec                           0x080087d1   Thumb Code   252  ldebug.o(.text)
    luaD_throw                               0x080089d1   Thumb Code   116  ldo.o(.text)
    luaD_rawrunprotected                     0x08008a45   Thumb Code    54  ldo.o(.text)
    luaD_reallocstack                        0x08008ae5   Thumb Code    88  ldo.o(.text)
    luaD_growstack                           0x08008b3d   Thumb Code    96  ldo.o(.text)
    luaD_shrinkstack                         0x08008bbd   Thumb Code    84  ldo.o(.text)
    luaD_inctop                              0x08008c11   Thumb Code    36  ldo.o(.text)
    luaD_hook                                0x08008c35   Thumb Code   142  ldo.o(.text)
    luaD_poscall                             0x08008e93   Thumb Code    94  ldo.o(.text)
    luaD_precall                             0x08008ef1   Thumb Code   454  ldo.o(.text)
    luaD_call                                0x080090df   Thumb Code    60  ldo.o(.text)
    luaD_callnoyield                         0x0800911b   Thumb Code    40  ldo.o(.text)
    lua_resume                               0x0800935d   Thumb Code   138  ldo.o(.text)
    lua_isyieldable                          0x080093e7   Thumb Code    16  ldo.o(.text)
    lua_yieldk                               0x080093f7   Thumb Code   108  ldo.o(.text)
    luaD_pcall                               0x08009463   Thumb Code   108  ldo.o(.text)
    luaD_protectedparser                     0x08009571   Thumb Code   150  ldo.o(.text)
    luaU_dump                                0x08009a53   Thumb Code    64  ldump.o(.text)
    luaF_newCclosure                         0x08009ab1   Thumb Code    36  lfunc.o(.text)
    luaF_newLclosure                         0x08009ad5   Thumb Code    60  lfunc.o(.text)
    luaF_initupvals                          0x08009b11   Thumb Code    62  lfunc.o(.text)
    luaF_findupval                           0x08009b4f   Thumb Code    98  lfunc.o(.text)
    luaF_close                               0x08009bb1   Thumb Code    90  lfunc.o(.text)
    luaF_newproto                            0x08009c0b   Thumb Code    62  lfunc.o(.text)
    luaF_freeproto                           0x08009c49   Thumb Code   108  lfunc.o(.text)
    luaF_getlocalname                        0x08009cb5   Thumb Code    72  lfunc.o(.text)
    luaC_barrier_                            0x08009e2b   Thumb Code    52  lgc.o(.text)
    luaC_barrierback_                        0x08009e5f   Thumb Code    18  lgc.o(.text)
    luaC_upvalbarrier_                       0x08009e71   Thumb Code    42  lgc.o(.text)
    luaC_fix                                 0x08009e9b   Thumb Code    24  lgc.o(.text)
    luaC_newobj                              0x08009eb3   Thumb Code    52  lgc.o(.text)
    luaC_upvdeccount                         0x0800a6b3   Thumb Code    40  lgc.o(.text)
    luaC_checkfinalizer                      0x0800aa55   Thumb Code   148  lgc.o(.text)
    luaC_freeallobjects                      0x0800ab47   Thumb Code    76  lgc.o(.text)
    luaC_runtilstate                         0x0800ade9   Thumb Code    32  lgc.o(.text)
    luaC_step                                0x0800ae3b   Thumb Code   106  lgc.o(.text)
    luaC_fullgc                              0x0800aea5   Thumb Code    78  lgc.o(.text)
    luaL_openlibs                            0x0800aef9   Thumb Code    40  linit.o(.text)
    luaopen_io                               0x0800bc1f   Thumb Code    84  liolib.o(.text)
    luaX_token2str                           0x0800bd11   Thumb Code    56  llex.o(.text)
    luaX_init                                0x0800be13   Thumb Code    66  llex.o(.text)
    luaX_syntaxerror                         0x0800be55   Thumb Code    18  llex.o(.text)
    luaX_newstring                           0x0800be67   Thumb Code   104  llex.o(.text)
    luaX_setinput                            0x0800bf45   Thumb Code    92  llex.o(.text)
    luaX_next                                0x0800ce15   Thumb Code    48  llex.o(.text)
    luaX_lookahead                           0x0800ce45   Thumb Code    20  llex.o(.text)
    luaopen_math                             0x0800d4d9   Thumb Code   124  lmathlib.o(.text)
    luaM_realloc_                            0x0800d585   Thumb Code    98  lmem.o(.text)
    luaM_toobig                              0x0800d5e7   Thumb Code    14  lmem.o(.text)
    luaM_growaux_                            0x0800d5f5   Thumb Code   112  lmem.o(.text)
    luaopen_package                          0x0800e08f   Thumb Code   194  loadlib.o(.text)
    luaO_int2fb                              0x0800e1c9   Thumb Code    50  lobject.o(.text)
    luaO_fb2int                              0x0800e1fb   Thumb Code    26  lobject.o(.text)
    luaO_ceillog2                            0x0800e215   Thumb Code    24  lobject.o(.text)
    luaO_arith                               0x0800e343   Thumb Code   344  lobject.o(.text)
    luaO_hexavalue                           0x0800e49b   Thumb Code    28  lobject.o(.text)
    luaO_str2num                             0x0800e62b   Thumb Code    64  lobject.o(.text)
    luaO_utf8esc                             0x0800e66b   Thumb Code    62  lobject.o(.text)
    luaO_tostring                            0x0800e6a9   Thumb Code   122  lobject.o(.text)
    luaO_pushfstring                         0x0800e74f   Thumb Code    34  lobject.o(.text)
    luaO_pushvfstring                        0x0800e771   Thumb Code   446  lobject.o(.text)
    luaO_chunkid                             0x0800e92f   Thumb Code   220  lobject.o(.text)
    time                                     0x0800ea81   Thumb Code    10  loslib.o(.text)
    exit                                     0x0800ea8b   Thumb Code     2  loslib.o(.text)
    system                                   0x0800ea8d   Thumb Code     6  loslib.o(.text)
    luaopen_os                               0x0800f16f   Thumb Code    38  loslib.o(.text)
    luaY_parser                              0x0801129b   Thumb Code   144  lparser.o(.text)
    luaE_freeCI                              0x0801132d   Thumb Code    40  lstate.o(.text)
    lua_newstate                             0x080114f9   Thumb Code   208  lstate.o(.text)
    luaE_setdebt                             0x08011611   Thumb Code    32  lstate.o(.text)
    luaE_extendCI                            0x08011631   Thumb Code    40  lstate.o(.text)
    luaE_shrinkCI                            0x08011659   Thumb Code    46  lstate.o(.text)
    lua_newthread                            0x08011687   Thumb Code   120  lstate.o(.text)
    luaE_freethread                          0x080116ff   Thumb Code    36  lstate.o(.text)
    lua_close                                0x08011723   Thumb Code    16  lstate.o(.text)
    luaS_eqlngstr                            0x0801173d   Thumb Code    42  lstring.o(.text)
    luaS_hash                                0x08011767   Thumb Code    38  lstring.o(.text)
    luaS_hashlongstr                         0x0801178d   Thumb Code    30  lstring.o(.text)
    luaS_resize                              0x080117ab   Thumb Code   180  lstring.o(.text)
    luaS_clearcache                          0x0801185f   Thumb Code    60  lstring.o(.text)
    luaS_createlngstrobj                     0x080118cf   Thumb Code    28  lstring.o(.text)
    luaS_newlstr                             0x080119a7   Thumb Code    66  lstring.o(.text)
    luaS_init                                0x080119e9   Thumb Code    74  lstring.o(.text)
    luaS_remove                              0x08011a33   Thumb Code    54  lstring.o(.text)
    luaS_new                                 0x08011a69   Thumb Code   106  lstring.o(.text)
    luaS_newudata                            0x08011ad3   Thumb Code    62  lstring.o(.text)
    luaopen_string                           0x08013d7b   Thumb Code    44  lstrlib.o(.text)
    luaH_next                                0x08013fd3   Thumb Code   150  ltable.o(.text)
    luaH_newkey                              0x080142c9   Thumb Code   410  ltable.o(.text)
    luaH_getint                              0x08014499   Thumb Code    80  ltable.o(.text)
    luaH_getshortstr                         0x080144e9   Thumb Code    70  ltable.o(.text)
    luaH_get                                 0x0801452f   Thumb Code    86  ltable.o(.text)
    luaH_set                                 0x08014585   Thumb Code    44  ltable.o(.text)
    luaH_setint                              0x080145b1   Thumb Code    66  ltable.o(.text)
    luaH_resize                              0x080145f3   Thumb Code   214  ltable.o(.text)
    luaH_resizearray                         0x080146c9   Thumb Code    46  ltable.o(.text)
    luaH_new                                 0x080146f7   Thumb Code    46  ltable.o(.text)
    luaH_free                                0x08014725   Thumb Code    64  ltable.o(.text)
    luaH_getstr                              0x08014765   Thumb Code    46  ltable.o(.text)
    luaH_getn                                0x080147f3   Thumb Code    78  ltable.o(.text)
    luaopen_table                            0x08015091   Thumb Code    38  ltablib.o(.text)
    luaT_init                                0x080150f5   Thumb Code    50  ltm.o(.text)
    luaT_gettm                               0x08015127   Thumb Code    46  ltm.o(.text)
    luaT_gettmbyobj                          0x08015155   Thumb Code    80  ltm.o(.text)
    luaT_callTM                              0x080151a5   Thumb Code   142  ltm.o(.text)
    luaT_callbinTM                           0x08015233   Thumb Code    76  ltm.o(.text)
    luaT_trybinTM                            0x0801527f   Thumb Code   170  ltm.o(.text)
    luaT_callorderTM                         0x08015329   Thumb Code    60  ltm.o(.text)
    luaU_undump                              0x08015915   Thumb Code   114  lundump.o(.text)
    luaopen_utf8                             0x08015e4f   Thumb Code    60  lutf8lib.o(.text)
    luaV_tonumber_                           0x08015f8d   Thumb Code    98  lvm.o(.text)
    luaV_tointeger                           0x08015fef   Thumb Code   174  lvm.o(.text)
    luaV_finishget                           0x0801610b   Thumb Code   202  lvm.o(.text)
    luaV_finishset                           0x080161d5   Thumb Code   318  lvm.o(.text)
    luaV_lessthan                            0x08016569   Thumb Code   104  lvm.o(.text)
    luaV_lessequal                           0x080165d1   Thumb Code   172  lvm.o(.text)
    luaV_equalobj                            0x0801667d   Thumb Code   578  lvm.o(.text)
    luaV_concat                              0x0801690f   Thumb Code   450  lvm.o(.text)
    luaV_objlen                              0x08016ad1   Thumb Code   178  lvm.o(.text)
    luaV_div                                 0x08016b83   Thumb Code    56  lvm.o(.text)
    luaV_mod                                 0x08016bbb   Thumb Code    52  lvm.o(.text)
    luaV_shiftl                              0x08016bef   Thumb Code    38  lvm.o(.text)
    luaV_finishOp                            0x08016cf5   Thumb Code   442  lvm.o(.text)
    luaV_execute                             0x08016eaf   Thumb Code  7556  lvm.o(.text)
    luaZ_fill                                0x08018c33   Thumb Code    48  lzio.o(.text)
    luaZ_init                                0x08018c63   Thumb Code    16  lzio.o(.text)
    luaZ_read                                0x08018c73   Thumb Code    94  lzio.o(.text)
    Delay_Init                               0x08018cd1   Thumb Code    44  delay.o(.text)
    SysTick_Handler                          0x08018cfd   Thumb Code    12  delay.o(.text)
    millis                                   0x08018d09   Thumb Code     6  delay.o(.text)
    micros                                   0x08018d0f   Thumb Code    34  delay.o(.text)
    delay_ms                                 0x08018d31   Thumb Code    18  delay.o(.text)
    delay_us                                 0x08018d43   Thumb Code    24  delay.o(.text)
    attach_EXTI                              0x08018d65   Thumb Code   180  exti.o(.text)
    attachInterrupt                          0x08018e19   Thumb Code    26  exti.o(.text)
    EXTI0_IRQHandler                         0x08018e33   Thumb Code    24  exti.o(.text)
    EXTI1_IRQHandler                         0x08018e4b   Thumb Code    24  exti.o(.text)
    EXTI2_IRQHandler                         0x08018e63   Thumb Code    24  exti.o(.text)
    EXTI3_IRQHandler                         0x08018e7b   Thumb Code    24  exti.o(.text)
    EXTI4_IRQHandler                         0x08018e93   Thumb Code    24  exti.o(.text)
    EXTI9_5_IRQHandler                       0x08018eab   Thumb Code   112  exti.o(.text)
    EXTI15_10_IRQHandler                     0x08018f1b   Thumb Code   148  exti.o(.text)
    GPIO_begin                               0x08018fb5   Thumb Code   138  gpio.o(.text)
    GPIO_ToggleBits                          0x0801903f   Thumb Code     8  gpio.o(.text)
    Get_GPIOx                                0x08019047   Thumb Code   132  gpio.o(.text)
    Get_Pinx                                 0x080190cb   Thumb Code    26  gpio.o(.text)
    ADCx_GPIO_Config                         0x08019105   Thumb Code    68  adc.o(.text)
    ADCx_DMA_Config                          0x08019149   Thumb Code   352  adc.o(.text)
    ADCx_DMA_Init                            0x080192a9   Thumb Code    12  adc.o(.text)
    Get_DMA_ADC                              0x080192b5   Thumb Code    10  adc.o(.text)
    ADCx_Init                                0x080192bf   Thumb Code   166  adc.o(.text)
    Get_ADC                                  0x08019365   Thumb Code    72  adc.o(.text)
    TIMx_Init                                0x080193c5   Thumb Code   242  pwm.o(.text)
    PWM_Init                                 0x080194b7   Thumb Code   114  pwm.o(.text)
    pwmWrite                                 0x08019529   Thumb Code    84  pwm.o(.text)
    timer_get_compare                        0x0801957d   Thumb Code    44  pwm.o(.text)
    timer_set_prescaler                      0x080195a9   Thumb Code     4  pwm.o(.text)
    timer_set_reload                         0x080195ad   Thumb Code     4  pwm.o(.text)
    timer_generate_update                    0x080195b1   Thumb Code     6  pwm.o(.text)
    usart_init                               0x080195d1   Thumb Code   244  usart.o(.text)
    usart_putc                               0x080196c5   Thumb Code    16  usart.o(.text)
    usart_attachInterrupt                    0x080196d5   Thumb Code     8  usart.o(.text)
    USART1_IRQHandler                        0x080196dd   Thumb Code    94  usart.o(.text)
    USART2_IRQHandler                        0x0801973b   Thumb Code   102  usart.o(.text)
    USART3_IRQHandler                        0x080197a1   Thumb Code    94  usart.o(.text)
    TimerSet_NVIC                            0x0801982d   Thumb Code   444  time_exti.o(.text)
    TimerSet                                 0x080199e9   Thumb Code    26  time_exti.o(.text)
    TIM1_UP_IRQHandler                       0x08019a03   Thumb Code    28  time_exti.o(.text)
    TIM2_IRQHandler                          0x08019a1f   Thumb Code    28  time_exti.o(.text)
    TIM3_IRQHandler                          0x08019a3b   Thumb Code    28  time_exti.o(.text)
    TIM4_IRQHandler                          0x08019a57   Thumb Code    28  time_exti.o(.text)
    TIM5_IRQHandler                          0x08019a73   Thumb Code    28  time_exti.o(.text)
    TIM6_IRQHandler                          0x08019a8f   Thumb Code    28  time_exti.o(.text)
    TIM7_IRQHandler                          0x08019aab   Thumb Code    28  time_exti.o(.text)
    TIM8_UP_IRQHandler                       0x08019ac7   Thumb Code    28  time_exti.o(.text)
    Lua_Stop()                               0x08019b2d   Thumb Code    32  main.o(.text)
    main                                     0x08019b4d   Thumb Code   440  main.o(.text)
    Serial_print                             0x08019dd9   Thumb Code    14  lua_call.o(.text)
    Lua_millis(lua_State*)                   0x08019de7   Thumb Code    28  lua_call.o(.text)
    Lua_delay(lua_State*)                    0x08019e03   Thumb Code    86  lua_call.o(.text)
    Lua_pinMode(lua_State*)                  0x08019e59   Thumb Code   364  lua_call.o(.text)
    Lua_digitalWrite(lua_State*)             0x08019fc5   Thumb Code   188  lua_call.o(.text)
    Lua_digitalRead(lua_State*)              0x0801a081   Thumb Code   182  lua_call.o(.text)
    Lua_analogWrite(lua_State*)              0x0801a137   Thumb Code   678  lua_call.o(.text)
    Lua_analogRead(lua_State*)               0x0801a3dd   Thumb Code   188  lua_call.o(.text)
    NVIC_PriorityGroupConfig                 0x0801a4c9   Thumb Code    10  misc.o(.text)
    NVIC_Init                                0x0801a4d3   Thumb Code   100  misc.o(.text)
    NVIC_SetVectorTable                      0x0801a537   Thumb Code    14  misc.o(.text)
    NVIC_SystemLPConfig                      0x0801a545   Thumb Code    34  misc.o(.text)
    SysTick_CLKSourceConfig                  0x0801a567   Thumb Code    40  misc.o(.text)
    ADC_DeInit                               0x0801a5a5   Thumb Code    78  stm32f10x_adc.o(.text)
    ADC_Init                                 0x0801a5f3   Thumb Code    70  stm32f10x_adc.o(.text)
    ADC_StructInit                           0x0801a639   Thumb Code    18  stm32f10x_adc.o(.text)
    ADC_Cmd                                  0x0801a64b   Thumb Code    22  stm32f10x_adc.o(.text)
    ADC_DMACmd                               0x0801a661   Thumb Code    22  stm32f10x_adc.o(.text)
    ADC_ITConfig                             0x0801a677   Thumb Code    24  stm32f10x_adc.o(.text)
    ADC_ResetCalibration                     0x0801a68f   Thumb Code    10  stm32f10x_adc.o(.text)
    ADC_GetResetCalibrationStatus            0x0801a699   Thumb Code    20  stm32f10x_adc.o(.text)
    ADC_StartCalibration                     0x0801a6ad   Thumb Code    10  stm32f10x_adc.o(.text)
    ADC_GetCalibrationStatus                 0x0801a6b7   Thumb Code    20  stm32f10x_adc.o(.text)
    ADC_SoftwareStartConvCmd                 0x0801a6cb   Thumb Code    22  stm32f10x_adc.o(.text)
    ADC_GetSoftwareStartConvStatus           0x0801a6e1   Thumb Code    20  stm32f10x_adc.o(.text)
    ADC_DiscModeChannelCountConfig           0x0801a6f5   Thumb Code    24  stm32f10x_adc.o(.text)
    ADC_DiscModeCmd                          0x0801a70d   Thumb Code    22  stm32f10x_adc.o(.text)
    ADC_RegularChannelConfig                 0x0801a723   Thumb Code   184  stm32f10x_adc.o(.text)
    ADC_ExternalTrigConvCmd                  0x0801a7db   Thumb Code    22  stm32f10x_adc.o(.text)
    ADC_GetConversionValue                   0x0801a7f1   Thumb Code     8  stm32f10x_adc.o(.text)
    ADC_GetDualModeConversionValue           0x0801a7f9   Thumb Code     8  stm32f10x_adc.o(.text)
    ADC_AutoInjectedConvCmd                  0x0801a801   Thumb Code    22  stm32f10x_adc.o(.text)
    ADC_InjectedDiscModeCmd                  0x0801a817   Thumb Code    22  stm32f10x_adc.o(.text)
    ADC_ExternalTrigInjectedConvConfig       0x0801a82d   Thumb Code    16  stm32f10x_adc.o(.text)
    ADC_ExternalTrigInjectedConvCmd          0x0801a83d   Thumb Code    22  stm32f10x_adc.o(.text)
    ADC_SoftwareStartInjectedConvCmd         0x0801a853   Thumb Code    22  stm32f10x_adc.o(.text)
    ADC_GetSoftwareStartInjectedConvCmdStatus 0x0801a869   Thumb Code    20  stm32f10x_adc.o(.text)
    ADC_InjectedChannelConfig                0x0801a87d   Thumb Code   130  stm32f10x_adc.o(.text)
    ADC_InjectedSequencerLengthConfig        0x0801a8ff   Thumb Code    24  stm32f10x_adc.o(.text)
    ADC_SetInjectedOffset                    0x0801a917   Thumb Code    20  stm32f10x_adc.o(.text)
    ADC_GetInjectedConversionValue           0x0801a92b   Thumb Code    28  stm32f10x_adc.o(.text)
    ADC_AnalogWatchdogCmd                    0x0801a947   Thumb Code    16  stm32f10x_adc.o(.text)
    ADC_AnalogWatchdogThresholdsConfig       0x0801a957   Thumb Code     6  stm32f10x_adc.o(.text)
    ADC_AnalogWatchdogSingleChannelConfig    0x0801a95d   Thumb Code    16  stm32f10x_adc.o(.text)
    ADC_TempSensorVrefintCmd                 0x0801a96d   Thumb Code    64  stm32f10x_adc.o(.text)
    ADC_GetFlagStatus                        0x0801a9ad   Thumb Code    18  stm32f10x_adc.o(.text)
    ADC_ClearFlag                            0x0801a9bf   Thumb Code     6  stm32f10x_adc.o(.text)
    ADC_GetITStatus                          0x0801a9c5   Thumb Code    36  stm32f10x_adc.o(.text)
    ADC_ClearITPendingBit                    0x0801a9e9   Thumb Code    10  stm32f10x_adc.o(.text)
    DMA_DeInit                               0x0801a9f5   Thumb Code   324  stm32f10x_dma.o(.text)
    DMA_Init                                 0x0801ab39   Thumb Code    60  stm32f10x_dma.o(.text)
    DMA_StructInit                           0x0801ab75   Thumb Code    26  stm32f10x_dma.o(.text)
    DMA_Cmd                                  0x0801ab8f   Thumb Code    24  stm32f10x_dma.o(.text)
    DMA_ITConfig                             0x0801aba7   Thumb Code    18  stm32f10x_dma.o(.text)
    DMA_SetCurrDataCounter                   0x0801abb9   Thumb Code     4  stm32f10x_dma.o(.text)
    DMA_GetCurrDataCounter                   0x0801abbd   Thumb Code     8  stm32f10x_dma.o(.text)
    DMA_GetFlagStatus                        0x0801abc5   Thumb Code    40  stm32f10x_dma.o(.text)
    DMA_ClearFlag                            0x0801abed   Thumb Code    22  stm32f10x_dma.o(.text)
    DMA_GetITStatus                          0x0801ac03   Thumb Code    40  stm32f10x_dma.o(.text)
    DMA_ClearITPendingBit                    0x0801ac2b   Thumb Code    22  stm32f10x_dma.o(.text)
    EXTI_DeInit                              0x0801ac49   Thumb Code    28  stm32f10x_exti.o(.text)
    EXTI_Init                                0x0801ac65   Thumb Code   142  stm32f10x_exti.o(.text)
    EXTI_StructInit                          0x0801acf3   Thumb Code    16  stm32f10x_exti.o(.text)
    EXTI_GenerateSWInterrupt                 0x0801ad03   Thumb Code    16  stm32f10x_exti.o(.text)
    EXTI_GetFlagStatus                       0x0801ad13   Thumb Code    22  stm32f10x_exti.o(.text)
    EXTI_ClearFlag                           0x0801ad29   Thumb Code     8  stm32f10x_exti.o(.text)
    EXTI_GetITStatus                         0x0801ad31   Thumb Code    34  stm32f10x_exti.o(.text)
    EXTI_ClearITPendingBit                   0x0801ad53   Thumb Code     8  stm32f10x_exti.o(.text)
    GPIO_DeInit                              0x0801ad65   Thumb Code   172  stm32f10x_gpio.o(.text)
    GPIO_AFIODeInit                          0x0801ae11   Thumb Code    20  stm32f10x_gpio.o(.text)
    GPIO_Init                                0x0801ae25   Thumb Code   278  stm32f10x_gpio.o(.text)
    GPIO_StructInit                          0x0801af3b   Thumb Code    16  stm32f10x_gpio.o(.text)
    GPIO_ReadInputDataBit                    0x0801af4b   Thumb Code    18  stm32f10x_gpio.o(.text)
    GPIO_ReadInputData                       0x0801af5d   Thumb Code     8  stm32f10x_gpio.o(.text)
    GPIO_ReadOutputDataBit                   0x0801af65   Thumb Code    18  stm32f10x_gpio.o(.text)
    GPIO_ReadOutputData                      0x0801af77   Thumb Code     8  stm32f10x_gpio.o(.text)
    GPIO_SetBits                             0x0801af7f   Thumb Code     4  stm32f10x_gpio.o(.text)
    GPIO_ResetBits                           0x0801af83   Thumb Code     4  stm32f10x_gpio.o(.text)
    GPIO_WriteBit                            0x0801af87   Thumb Code    10  stm32f10x_gpio.o(.text)
    GPIO_Write                               0x0801af91   Thumb Code     4  stm32f10x_gpio.o(.text)
    GPIO_PinLockConfig                       0x0801af95   Thumb Code    18  stm32f10x_gpio.o(.text)
    GPIO_EventOutputConfig                   0x0801afa7   Thumb Code    26  stm32f10x_gpio.o(.text)
    GPIO_EventOutputCmd                      0x0801afc1   Thumb Code     6  stm32f10x_gpio.o(.text)
    GPIO_PinRemapConfig                      0x0801afc7   Thumb Code   138  stm32f10x_gpio.o(.text)
    GPIO_EXTILineConfig                      0x0801b051   Thumb Code    66  stm32f10x_gpio.o(.text)
    GPIO_ETH_MediaInterfaceConfig            0x0801b093   Thumb Code     8  stm32f10x_gpio.o(.text)
    RCC_DeInit                               0x0801b0c1   Thumb Code    64  stm32f10x_rcc.o(.text)
    RCC_HSEConfig                            0x0801b101   Thumb Code    70  stm32f10x_rcc.o(.text)
    RCC_GetFlagStatus                        0x0801b147   Thumb Code    56  stm32f10x_rcc.o(.text)
    RCC_WaitForHSEStartUp                    0x0801b17f   Thumb Code    56  stm32f10x_rcc.o(.text)
    RCC_AdjustHSICalibrationValue            0x0801b1b7   Thumb Code    20  stm32f10x_rcc.o(.text)
    RCC_HSICmd                               0x0801b1cb   Thumb Code     6  stm32f10x_rcc.o(.text)
    RCC_PLLConfig                            0x0801b1d1   Thumb Code    24  stm32f10x_rcc.o(.text)
    RCC_PLLCmd                               0x0801b1e9   Thumb Code     6  stm32f10x_rcc.o(.text)
    RCC_SYSCLKConfig                         0x0801b1ef   Thumb Code    18  stm32f10x_rcc.o(.text)
    RCC_GetSYSCLKSource                      0x0801b201   Thumb Code    10  stm32f10x_rcc.o(.text)
    RCC_HCLKConfig                           0x0801b20b   Thumb Code    18  stm32f10x_rcc.o(.text)
    RCC_PCLK1Config                          0x0801b21d   Thumb Code    18  stm32f10x_rcc.o(.text)
    RCC_PCLK2Config                          0x0801b22f   Thumb Code    20  stm32f10x_rcc.o(.text)
    RCC_ITConfig                             0x0801b243   Thumb Code    26  stm32f10x_rcc.o(.text)
    RCC_USBCLKConfig                         0x0801b25d   Thumb Code     8  stm32f10x_rcc.o(.text)
    RCC_ADCCLKConfig                         0x0801b265   Thumb Code    18  stm32f10x_rcc.o(.text)
    RCC_LSEConfig                            0x0801b277   Thumb Code    50  stm32f10x_rcc.o(.text)
    RCC_LSICmd                               0x0801b2a9   Thumb Code     6  stm32f10x_rcc.o(.text)
    RCC_RTCCLKConfig                         0x0801b2af   Thumb Code    12  stm32f10x_rcc.o(.text)
    RCC_RTCCLKCmd                            0x0801b2bb   Thumb Code     8  stm32f10x_rcc.o(.text)
    RCC_GetClocksFreq                        0x0801b2c3   Thumb Code   192  stm32f10x_rcc.o(.text)
    RCC_AHBPeriphClockCmd                    0x0801b383   Thumb Code    26  stm32f10x_rcc.o(.text)
    RCC_APB2PeriphClockCmd                   0x0801b39d   Thumb Code    26  stm32f10x_rcc.o(.text)
    RCC_APB1PeriphClockCmd                   0x0801b3b7   Thumb Code    26  stm32f10x_rcc.o(.text)
    RCC_APB2PeriphResetCmd                   0x0801b3d1   Thumb Code    26  stm32f10x_rcc.o(.text)
    RCC_APB1PeriphResetCmd                   0x0801b3eb   Thumb Code    26  stm32f10x_rcc.o(.text)
    RCC_BackupResetCmd                       0x0801b405   Thumb Code     8  stm32f10x_rcc.o(.text)
    RCC_ClockSecuritySystemCmd               0x0801b40d   Thumb Code     6  stm32f10x_rcc.o(.text)
    RCC_MCOConfig                            0x0801b413   Thumb Code     6  stm32f10x_rcc.o(.text)
    RCC_ClearFlag                            0x0801b419   Thumb Code    14  stm32f10x_rcc.o(.text)
    RCC_GetITStatus                          0x0801b427   Thumb Code    20  stm32f10x_rcc.o(.text)
    RCC_ClearITPendingBit                    0x0801b43b   Thumb Code     6  stm32f10x_rcc.o(.text)
    SPI_I2S_DeInit                           0x0801b465   Thumb Code    76  stm32f10x_spi.o(.text)
    SPI_Init                                 0x0801b4b1   Thumb Code    60  stm32f10x_spi.o(.text)
    I2S_Init                                 0x0801b4ed   Thumb Code   226  stm32f10x_spi.o(.text)
    SPI_StructInit                           0x0801b5cf   Thumb Code    24  stm32f10x_spi.o(.text)
    I2S_StructInit                           0x0801b5e7   Thumb Code    20  stm32f10x_spi.o(.text)
    SPI_Cmd                                  0x0801b5fb   Thumb Code    24  stm32f10x_spi.o(.text)
    I2S_Cmd                                  0x0801b613   Thumb Code    24  stm32f10x_spi.o(.text)
    SPI_I2S_ITConfig                         0x0801b62b   Thumb Code    32  stm32f10x_spi.o(.text)
    SPI_I2S_DMACmd                           0x0801b64b   Thumb Code    18  stm32f10x_spi.o(.text)
    SPI_I2S_SendData                         0x0801b65d   Thumb Code     4  stm32f10x_spi.o(.text)
    SPI_I2S_ReceiveData                      0x0801b661   Thumb Code     6  stm32f10x_spi.o(.text)
    SPI_NSSInternalSoftwareConfig            0x0801b667   Thumb Code    30  stm32f10x_spi.o(.text)
    SPI_SSOutputCmd                          0x0801b685   Thumb Code    24  stm32f10x_spi.o(.text)
    SPI_DataSizeConfig                       0x0801b69d   Thumb Code    18  stm32f10x_spi.o(.text)
    SPI_TransmitCRC                          0x0801b6af   Thumb Code    10  stm32f10x_spi.o(.text)
    SPI_CalculateCRC                         0x0801b6b9   Thumb Code    24  stm32f10x_spi.o(.text)
    SPI_GetCRC                               0x0801b6d1   Thumb Code    16  stm32f10x_spi.o(.text)
    SPI_GetCRCPolynomial                     0x0801b6e1   Thumb Code     6  stm32f10x_spi.o(.text)
    SPI_BiDirectionalLineConfig              0x0801b6e7   Thumb Code    28  stm32f10x_spi.o(.text)
    SPI_I2S_GetFlagStatus                    0x0801b703   Thumb Code    18  stm32f10x_spi.o(.text)
    SPI_I2S_ClearFlag                        0x0801b715   Thumb Code     6  stm32f10x_spi.o(.text)
    SPI_I2S_GetITStatus                      0x0801b71b   Thumb Code    52  stm32f10x_spi.o(.text)
    SPI_I2S_ClearITPendingBit                0x0801b74f   Thumb Code    20  stm32f10x_spi.o(.text)
    TIM_DeInit                               0x0801b771   Thumb Code   424  stm32f10x_tim.o(.text)
    TIM_TimeBaseInit                         0x0801b919   Thumb Code   122  stm32f10x_tim.o(.text)
    TIM_OC1Init                              0x0801b993   Thumb Code   132  stm32f10x_tim.o(.text)
    TIM_OC2Init                              0x0801ba17   Thumb Code   154  stm32f10x_tim.o(.text)
    TIM_OC3Init                              0x0801bab1   Thumb Code   150  stm32f10x_tim.o(.text)
    TIM_OC4Init                              0x0801bb47   Thumb Code   182  stm32f10x_tim.o(.text)
    TIM_SetIC4Prescaler                      0x0801bbfd   Thumb Code    26  stm32f10x_tim.o(.text)
    TIM_SetIC3Prescaler                      0x0801bc99   Thumb Code    18  stm32f10x_tim.o(.text)
    TIM_SetIC2Prescaler                      0x0801bd25   Thumb Code    26  stm32f10x_tim.o(.text)
    TIM_SetIC1Prescaler                      0x0801bdc1   Thumb Code    18  stm32f10x_tim.o(.text)
    TIM_ICInit                               0x0801be3f   Thumb Code   150  stm32f10x_tim.o(.text)
    TIM_PWMIConfig                           0x0801bed5   Thumb Code   124  stm32f10x_tim.o(.text)
    TIM_BDTRConfig                           0x0801bf51   Thumb Code    32  stm32f10x_tim.o(.text)
    TIM_TimeBaseStructInit                   0x0801bf71   Thumb Code    18  stm32f10x_tim.o(.text)
    TIM_OCStructInit                         0x0801bf83   Thumb Code    20  stm32f10x_tim.o(.text)
    TIM_ICStructInit                         0x0801bf97   Thumb Code    18  stm32f10x_tim.o(.text)
    TIM_BDTRStructInit                       0x0801bfa9   Thumb Code    40  stm32f10x_tim.o(.text)
    TIM_Cmd                                  0x0801bfd1   Thumb Code    24  stm32f10x_tim.o(.text)
    TIM_CtrlPWMOutputs                       0x0801bfe9   Thumb Code    30  stm32f10x_tim.o(.text)
    TIM_ITConfig                             0x0801c007   Thumb Code    18  stm32f10x_tim.o(.text)
    TIM_GenerateEvent                        0x0801c019   Thumb Code     4  stm32f10x_tim.o(.text)
    TIM_DMAConfig                            0x0801c01d   Thumb Code    10  stm32f10x_tim.o(.text)
    TIM_DMACmd                               0x0801c027   Thumb Code    18  stm32f10x_tim.o(.text)
    TIM_InternalClockConfig                  0x0801c039   Thumb Code    12  stm32f10x_tim.o(.text)
    TIM_SelectInputTrigger                   0x0801c045   Thumb Code    18  stm32f10x_tim.o(.text)
    TIM_ITRxExternalClockConfig              0x0801c057   Thumb Code    24  stm32f10x_tim.o(.text)
    TIM_TIxExternalClockConfig               0x0801c06f   Thumb Code    62  stm32f10x_tim.o(.text)
    TIM_ETRConfig                            0x0801c0ad   Thumb Code    28  stm32f10x_tim.o(.text)
    TIM_ETRClockMode1Config                  0x0801c0c9   Thumb Code    54  stm32f10x_tim.o(.text)
    TIM_ETRClockMode2Config                  0x0801c0ff   Thumb Code    32  stm32f10x_tim.o(.text)
    TIM_PrescalerConfig                      0x0801c11f   Thumb Code     6  stm32f10x_tim.o(.text)
    TIM_CounterModeConfig                    0x0801c125   Thumb Code    18  stm32f10x_tim.o(.text)
    TIM_EncoderInterfaceConfig               0x0801c137   Thumb Code    66  stm32f10x_tim.o(.text)
    TIM_ForcedOC1Config                      0x0801c179   Thumb Code    18  stm32f10x_tim.o(.text)
    TIM_ForcedOC2Config                      0x0801c18b   Thumb Code    26  stm32f10x_tim.o(.text)
    TIM_ForcedOC3Config                      0x0801c1a5   Thumb Code    18  stm32f10x_tim.o(.text)
    TIM_ForcedOC4Config                      0x0801c1b7   Thumb Code    26  stm32f10x_tim.o(.text)
    TIM_ARRPreloadConfig                     0x0801c1d1   Thumb Code    24  stm32f10x_tim.o(.text)
    TIM_SelectCOM                            0x0801c1e9   Thumb Code    24  stm32f10x_tim.o(.text)
    TIM_SelectCCDMA                          0x0801c201   Thumb Code    24  stm32f10x_tim.o(.text)
    TIM_CCPreloadControl                     0x0801c219   Thumb Code    24  stm32f10x_tim.o(.text)
    TIM_OC1PreloadConfig                     0x0801c231   Thumb Code    18  stm32f10x_tim.o(.text)
    TIM_OC2PreloadConfig                     0x0801c243   Thumb Code    26  stm32f10x_tim.o(.text)
    TIM_OC3PreloadConfig                     0x0801c25d   Thumb Code    18  stm32f10x_tim.o(.text)
    TIM_OC4PreloadConfig                     0x0801c26f   Thumb Code    26  stm32f10x_tim.o(.text)
    TIM_OC1FastConfig                        0x0801c289   Thumb Code    18  stm32f10x_tim.o(.text)
    TIM_OC2FastConfig                        0x0801c29b   Thumb Code    26  stm32f10x_tim.o(.text)
    TIM_OC3FastConfig                        0x0801c2b5   Thumb Code    18  stm32f10x_tim.o(.text)
    TIM_OC4FastConfig                        0x0801c2c7   Thumb Code    26  stm32f10x_tim.o(.text)
    TIM_ClearOC1Ref                          0x0801c2e1   Thumb Code    18  stm32f10x_tim.o(.text)
    TIM_ClearOC2Ref                          0x0801c2f3   Thumb Code    24  stm32f10x_tim.o(.text)
    TIM_ClearOC3Ref                          0x0801c30b   Thumb Code    18  stm32f10x_tim.o(.text)
    TIM_ClearOC4Ref                          0x0801c31d   Thumb Code    24  stm32f10x_tim.o(.text)
    TIM_OC1PolarityConfig                    0x0801c335   Thumb Code    18  stm32f10x_tim.o(.text)
    TIM_OC1NPolarityConfig                   0x0801c347   Thumb Code    18  stm32f10x_tim.o(.text)
    TIM_OC2PolarityConfig                    0x0801c359   Thumb Code    26  stm32f10x_tim.o(.text)
    TIM_OC2NPolarityConfig                   0x0801c373   Thumb Code    26  stm32f10x_tim.o(.text)
    TIM_OC3PolarityConfig                    0x0801c38d   Thumb Code    26  stm32f10x_tim.o(.text)
    TIM_OC3NPolarityConfig                   0x0801c3a7   Thumb Code    26  stm32f10x_tim.o(.text)
    TIM_OC4PolarityConfig                    0x0801c3c1   Thumb Code    26  stm32f10x_tim.o(.text)
    TIM_CCxCmd                               0x0801c3db   Thumb Code    30  stm32f10x_tim.o(.text)
    TIM_CCxNCmd                              0x0801c3f9   Thumb Code    30  stm32f10x_tim.o(.text)
    TIM_SelectOCxM                           0x0801c417   Thumb Code    82  stm32f10x_tim.o(.text)
    TIM_UpdateDisableConfig                  0x0801c469   Thumb Code    24  stm32f10x_tim.o(.text)
    TIM_UpdateRequestConfig                  0x0801c481   Thumb Code    24  stm32f10x_tim.o(.text)
    TIM_SelectHallSensor                     0x0801c499   Thumb Code    24  stm32f10x_tim.o(.text)
    TIM_SelectOnePulseMode                   0x0801c4b1   Thumb Code    18  stm32f10x_tim.o(.text)
    TIM_SelectOutputTrigger                  0x0801c4c3   Thumb Code    18  stm32f10x_tim.o(.text)
    TIM_SelectSlaveMode                      0x0801c4d5   Thumb Code    18  stm32f10x_tim.o(.text)
    TIM_SelectMasterSlaveMode                0x0801c4e7   Thumb Code    18  stm32f10x_tim.o(.text)
    TIM_SetCounter                           0x0801c4f9   Thumb Code     4  stm32f10x_tim.o(.text)
    TIM_SetAutoreload                        0x0801c4fd   Thumb Code     4  stm32f10x_tim.o(.text)
    TIM_SetCompare1                          0x0801c501   Thumb Code     4  stm32f10x_tim.o(.text)
    TIM_SetCompare2                          0x0801c505   Thumb Code     4  stm32f10x_tim.o(.text)
    TIM_SetCompare3                          0x0801c509   Thumb Code     4  stm32f10x_tim.o(.text)
    TIM_SetCompare4                          0x0801c50d   Thumb Code     6  stm32f10x_tim.o(.text)
    TIM_SetClockDivision                     0x0801c513   Thumb Code    18  stm32f10x_tim.o(.text)
    TIM_GetCapture1                          0x0801c525   Thumb Code     6  stm32f10x_tim.o(.text)
    TIM_GetCapture2                          0x0801c52b   Thumb Code     6  stm32f10x_tim.o(.text)
    TIM_GetCapture3                          0x0801c531   Thumb Code     6  stm32f10x_tim.o(.text)
    TIM_GetCapture4                          0x0801c537   Thumb Code     8  stm32f10x_tim.o(.text)
    TIM_GetCounter                           0x0801c53f   Thumb Code     6  stm32f10x_tim.o(.text)
    TIM_GetPrescaler                         0x0801c545   Thumb Code     6  stm32f10x_tim.o(.text)
    TIM_GetFlagStatus                        0x0801c54b   Thumb Code    18  stm32f10x_tim.o(.text)
    TIM_ClearFlag                            0x0801c55d   Thumb Code     6  stm32f10x_tim.o(.text)
    TIM_GetITStatus                          0x0801c563   Thumb Code    34  stm32f10x_tim.o(.text)
    TIM_ClearITPendingBit                    0x0801c585   Thumb Code     6  stm32f10x_tim.o(.text)
    USART_DeInit                             0x0801c58d   Thumb Code   134  stm32f10x_usart.o(.text)
    USART_Init                               0x0801c613   Thumb Code   210  stm32f10x_usart.o(.text)
    USART_StructInit                         0x0801c6e5   Thumb Code    24  stm32f10x_usart.o(.text)
    USART_ClockInit                          0x0801c6fd   Thumb Code    34  stm32f10x_usart.o(.text)
    USART_ClockStructInit                    0x0801c71f   Thumb Code    12  stm32f10x_usart.o(.text)
    USART_Cmd                                0x0801c72b   Thumb Code    24  stm32f10x_usart.o(.text)
    USART_ITConfig                           0x0801c743   Thumb Code    74  stm32f10x_usart.o(.text)
    USART_DMACmd                             0x0801c78d   Thumb Code    18  stm32f10x_usart.o(.text)
    USART_SetAddress                         0x0801c79f   Thumb Code    18  stm32f10x_usart.o(.text)
    USART_WakeUpConfig                       0x0801c7b1   Thumb Code    18  stm32f10x_usart.o(.text)
    USART_ReceiverWakeUpCmd                  0x0801c7c3   Thumb Code    24  stm32f10x_usart.o(.text)
    USART_LINBreakDetectLengthConfig         0x0801c7db   Thumb Code    18  stm32f10x_usart.o(.text)
    USART_LINCmd                             0x0801c7ed   Thumb Code    24  stm32f10x_usart.o(.text)
    USART_SendData                           0x0801c805   Thumb Code     8  stm32f10x_usart.o(.text)
    USART_ReceiveData                        0x0801c80d   Thumb Code    10  stm32f10x_usart.o(.text)
    USART_SendBreak                          0x0801c817   Thumb Code    10  stm32f10x_usart.o(.text)
    USART_SetGuardTime                       0x0801c821   Thumb Code    16  stm32f10x_usart.o(.text)
    USART_SetPrescaler                       0x0801c831   Thumb Code    16  stm32f10x_usart.o(.text)
    USART_SmartCardCmd                       0x0801c841   Thumb Code    24  stm32f10x_usart.o(.text)
    USART_SmartCardNACKCmd                   0x0801c859   Thumb Code    24  stm32f10x_usart.o(.text)
    USART_HalfDuplexCmd                      0x0801c871   Thumb Code    24  stm32f10x_usart.o(.text)
    USART_OverSampling8Cmd                   0x0801c889   Thumb Code    22  stm32f10x_usart.o(.text)
    USART_OneBitMethodCmd                    0x0801c89f   Thumb Code    24  stm32f10x_usart.o(.text)
    USART_IrDAConfig                         0x0801c8b7   Thumb Code    18  stm32f10x_usart.o(.text)
    USART_IrDACmd                            0x0801c8c9   Thumb Code    24  stm32f10x_usart.o(.text)
    USART_GetFlagStatus                      0x0801c8e1   Thumb Code    26  stm32f10x_usart.o(.text)
    USART_ClearFlag                          0x0801c8fb   Thumb Code    18  stm32f10x_usart.o(.text)
    USART_GetITStatus                        0x0801c90d   Thumb Code    84  stm32f10x_usart.o(.text)
    USART_ClearITPendingBit                  0x0801c961   Thumb Code    52  stm32f10x_usart.o(.text)
    Reset_Handler                            0x0801c995   Thumb Code     8  startup_stm32f10x_hd.o(.text)
    NMI_Handler                              0x0801c99d   Thumb Code     2  startup_stm32f10x_hd.o(.text)
    HardFault_Handler                        0x0801c99f   Thumb Code     2  startup_stm32f10x_hd.o(.text)
    MemManage_Handler                        0x0801c9a1   Thumb Code     2  startup_stm32f10x_hd.o(.text)
    BusFault_Handler                         0x0801c9a3   Thumb Code     2  startup_stm32f10x_hd.o(.text)
    UsageFault_Handler                       0x0801c9a5   Thumb Code     2  startup_stm32f10x_hd.o(.text)
    SVC_Handler                              0x0801c9a7   Thumb Code     2  startup_stm32f10x_hd.o(.text)
    DebugMon_Handler                         0x0801c9a9   Thumb Code     2  startup_stm32f10x_hd.o(.text)
    PendSV_Handler                           0x0801c9ab   Thumb Code     2  startup_stm32f10x_hd.o(.text)
    ADC1_2_IRQHandler                        0x0801c9af   Thumb Code     0  startup_stm32f10x_hd.o(.text)
    ADC3_IRQHandler                          0x0801c9af   Thumb Code     0  startup_stm32f10x_hd.o(.text)
    CAN1_RX1_IRQHandler                      0x0801c9af   Thumb Code     0  startup_stm32f10x_hd.o(.text)
    CAN1_SCE_IRQHandler                      0x0801c9af   Thumb Code     0  startup_stm32f10x_hd.o(.text)
    DMA1_Channel1_IRQHandler                 0x0801c9af   Thumb Code     0  startup_stm32f10x_hd.o(.text)
    DMA1_Channel2_IRQHandler                 0x0801c9af   Thumb Code     0  startup_stm32f10x_hd.o(.text)
    DMA1_Channel3_IRQHandler                 0x0801c9af   Thumb Code     0  startup_stm32f10x_hd.o(.text)
    DMA1_Channel4_IRQHandler                 0x0801c9af   Thumb Code     0  startup_stm32f10x_hd.o(.text)
    DMA1_Channel5_IRQHandler                 0x0801c9af   Thumb Code     0  startup_stm32f10x_hd.o(.text)
    DMA1_Channel6_IRQHandler                 0x0801c9af   Thumb Code     0  startup_stm32f10x_hd.o(.text)
    DMA1_Channel7_IRQHandler                 0x0801c9af   Thumb Code     0  startup_stm32f10x_hd.o(.text)
    DMA2_Channel1_IRQHandler                 0x0801c9af   Thumb Code     0  startup_stm32f10x_hd.o(.text)
    DMA2_Channel2_IRQHandler                 0x0801c9af   Thumb Code     0  startup_stm32f10x_hd.o(.text)
    DMA2_Channel3_IRQHandler                 0x0801c9af   Thumb Code     0  startup_stm32f10x_hd.o(.text)
    DMA2_Channel4_5_IRQHandler               0x0801c9af   Thumb Code     0  startup_stm32f10x_hd.o(.text)
    FLASH_IRQHandler                         0x0801c9af   Thumb Code     0  startup_stm32f10x_hd.o(.text)
    FSMC_IRQHandler                          0x0801c9af   Thumb Code     0  startup_stm32f10x_hd.o(.text)
    I2C1_ER_IRQHandler                       0x0801c9af   Thumb Code     0  startup_stm32f10x_hd.o(.text)
    I2C1_EV_IRQHandler                       0x0801c9af   Thumb Code     0  startup_stm32f10x_hd.o(.text)
    I2C2_ER_IRQHandler                       0x0801c9af   Thumb Code     0  startup_stm32f10x_hd.o(.text)
    I2C2_EV_IRQHandler                       0x0801c9af   Thumb Code     0  startup_stm32f10x_hd.o(.text)
    PVD_IRQHandler                           0x0801c9af   Thumb Code     0  startup_stm32f10x_hd.o(.text)
    RCC_IRQHandler                           0x0801c9af   Thumb Code     0  startup_stm32f10x_hd.o(.text)
    RTCAlarm_IRQHandler                      0x0801c9af   Thumb Code     0  startup_stm32f10x_hd.o(.text)
    RTC_IRQHandler                           0x0801c9af   Thumb Code     0  startup_stm32f10x_hd.o(.text)
    SDIO_IRQHandler                          0x0801c9af   Thumb Code     0  startup_stm32f10x_hd.o(.text)
    SPI1_IRQHandler                          0x0801c9af   Thumb Code     0  startup_stm32f10x_hd.o(.text)
    SPI2_IRQHandler                          0x0801c9af   Thumb Code     0  startup_stm32f10x_hd.o(.text)
    SPI3_IRQHandler                          0x0801c9af   Thumb Code     0  startup_stm32f10x_hd.o(.text)
    TAMPER_IRQHandler                        0x0801c9af   Thumb Code     0  startup_stm32f10x_hd.o(.text)
    TIM1_BRK_IRQHandler                      0x0801c9af   Thumb Code     0  startup_stm32f10x_hd.o(.text)
    TIM1_CC_IRQHandler                       0x0801c9af   Thumb Code     0  startup_stm32f10x_hd.o(.text)
    TIM1_TRG_COM_IRQHandler                  0x0801c9af   Thumb Code     0  startup_stm32f10x_hd.o(.text)
    TIM8_BRK_IRQHandler                      0x0801c9af   Thumb Code     0  startup_stm32f10x_hd.o(.text)
    TIM8_CC_IRQHandler                       0x0801c9af   Thumb Code     0  startup_stm32f10x_hd.o(.text)
    TIM8_TRG_COM_IRQHandler                  0x0801c9af   Thumb Code     0  startup_stm32f10x_hd.o(.text)
    UART4_IRQHandler                         0x0801c9af   Thumb Code     0  startup_stm32f10x_hd.o(.text)
    UART5_IRQHandler                         0x0801c9af   Thumb Code     0  startup_stm32f10x_hd.o(.text)
    USBWakeUp_IRQHandler                     0x0801c9af   Thumb Code     0  startup_stm32f10x_hd.o(.text)
    USB_HP_CAN1_TX_IRQHandler                0x0801c9af   Thumb Code     0  startup_stm32f10x_hd.o(.text)
    USB_LP_CAN1_RX0_IRQHandler               0x0801c9af   Thumb Code     0  startup_stm32f10x_hd.o(.text)
    WWDG_IRQHandler                          0x0801c9af   Thumb Code     0  startup_stm32f10x_hd.o(.text)
    SystemInit                               0x0801ca97   Thumb Code    78  system_stm32f10x.o(.text)
    SystemCoreClockUpdate                    0x0801cae5   Thumb Code   142  system_stm32f10x.o(.text)
    fgetc                                    0x0801cb99   Thumb Code    24  fgetc_u.o(.text)
    ungetc                                   0x0801cbb1   Thumb Code    26  fgetc_u.o(.text)
    __aeabi_uldivmod                         0x0801cbd1   Thumb Code    98  uldiv.o(.text)
    __rt_ctype_table                         0x0801cc35   Thumb Code     4  ctype_o.o(.text)
    toupper                                  0x0801cc3d   Thumb Code    12  toupper.o(.text)
    tolower                                  0x0801cc49   Thumb Code    12  tolower.o(.text)
    rand                                     0x0801cc55   Thumb Code    20  rand.o(.text)
    srand                                    0x0801cc69   Thumb Code     6  rand.o(.text)
    localeconv                               0x0801cc79   Thumb Code     4  localeconv.o(.text)
    mktime                                   0x0801cc81   Thumb Code   150  mktime.o(.text)
    strftime                                 0x0801cd69   Thumb Code   580  strftime.o(.text)
    ___aeabi_memcpy8$move                    0x0801d0bd   Thumb Code     0  memmovea.o(.text)
    __aeabi_memcpy                           0x0801d0bd   Thumb Code    64  memmovea.o(.text)
    __aeabi_memcpy4                          0x0801d0bd   Thumb Code     0  memmovea.o(.text)
    __aeabi_memmove                          0x0801d0bd   Thumb Code     0  memmovea.o(.text)
    __aeabi_memmove4                         0x0801d0bd   Thumb Code     0  memmovea.o(.text)
    __aeabi_memmove8                         0x0801d0bd   Thumb Code     0  memmovea.o(.text)
    strstr                                   0x0801d0fd   Thumb Code    36  strstr.o(.text)
    strncpy                                  0x0801d121   Thumb Code    24  strncpy.o(.text)
    strchr                                   0x0801d139   Thumb Code    20  strchr.o(.text)
    strlen                                   0x0801d14d   Thumb Code    14  strlen.o(.text)
    strcmp                                   0x0801d15b   Thumb Code    28  strcmp.o(.text)
    memchr                                   0x0801d177   Thumb Code    20  memchr.o(.text)
    memcmp                                   0x0801d18b   Thumb Code    26  memcmp.o(.text)
    strcoll                                  0x0801d1a5   Thumb Code     4  strcoll.o(.text)
    strcpy                                   0x0801d1a9   Thumb Code    18  strcpy.o(.text)
    strncmp                                  0x0801d1bb   Thumb Code    30  strncmp.o(.text)
    strrchr                                  0x0801d1d9   Thumb Code    32  strrchr.o(.text)
    strspn                                   0x0801d1f9   Thumb Code    28  strspn.o(.text)
    strpbrk                                  0x0801d215   Thumb Code    32  strpbrk.o(.text)
    strerror                                 0x0801d235   Thumb Code    40  strerror.o(.text)
    atol                                     0x0801d319   Thumb Code    26  atol.o(.text)
    __cpp_initialize__aeabi_                 0x0801d335   Thumb Code    22  cpp_init.o(.text)
    __aeabi_atexit                           0x0801d355   Thumb Code    46  aeabi_atexit.o(.text)
    __aeabi_fadd                             0x0801d383   Thumb Code   164  fadd.o(.text)
    __aeabi_fsub                             0x0801d427   Thumb Code     6  fadd.o(.text)
    __aeabi_frsub                            0x0801d42d   Thumb Code     6  fadd.o(.text)
    __aeabi_fmul                             0x0801d433   Thumb Code   100  fmul.o(.text)
    __aeabi_fdiv                             0x0801d497   Thumb Code   124  fdiv.o(.text)
    __aeabi_dadd                             0x0801d513   Thumb Code   322  dadd.o(.text)
    __aeabi_dsub                             0x0801d655   Thumb Code     6  dadd.o(.text)
    __aeabi_drsub                            0x0801d65b   Thumb Code     6  dadd.o(.text)
    __aeabi_dmul                             0x0801d661   Thumb Code   228  dmul.o(.text)
    __aeabi_ddiv                             0x0801d745   Thumb Code   222  ddiv.o(.text)
    __aeabi_i2f                              0x0801d823   Thumb Code    18  fflti.o(.text)
    __aeabi_ui2f                             0x0801d835   Thumb Code    10  ffltui.o(.text)
    __aeabi_i2d                              0x0801d83f   Thumb Code    34  dflti.o(.text)
    __aeabi_l2d                              0x0801d861   Thumb Code    40  dfltl.o(.text)
    __aeabi_f2iz                             0x0801d889   Thumb Code    50  ffixi.o(.text)
    __aeabi_f2uiz                            0x0801d8bb   Thumb Code    40  ffixui.o(.text)
    __aeabi_d2iz                             0x0801d8e3   Thumb Code    62  dfixi.o(.text)
    __aeabi_d2lz                             0x0801d921   Thumb Code    74  dfixl.o(.text)
    __aeabi_f2d                              0x0801d96b   Thumb Code    38  f2d.o(.text)
    __aeabi_cdcmpeq                          0x0801d991   Thumb Code     0  cdcmple.o(.text)
    __aeabi_cdcmple                          0x0801d991   Thumb Code    48  cdcmple.o(.text)
    __aeabi_cdrcmple                         0x0801d9c1   Thumb Code    48  cdrcmple.o(.text)
    __aeabi_d2f                              0x0801d9f1   Thumb Code    56  d2f.o(.text)
    __aeabi_cfcmpeq                          0x0801da29   Thumb Code     0  cfcmple.o(.text)
    __aeabi_cfcmple                          0x0801da29   Thumb Code    20  cfcmple.o(.text)
    __aeabi_cfrcmple                         0x0801da3d   Thumb Code    20  cfrcmple.o(.text)
    setjmp                                   0x0801da51   Thumb Code    26  setjmp.o(.text)
    longjmp                                  0x0801da6b   Thumb Code    36  setjmp.o(.text)
    __aeabi_uidiv                            0x0801da8f   Thumb Code     0  uidiv.o(.text)
    __aeabi_uidivmod                         0x0801da8f   Thumb Code    44  uidiv.o(.text)
    __semihosting_library_function           0x0801da8f   Thumb Code     0  semi.o(.text)
    __aeabi_llsl                             0x0801dabb   Thumb Code    30  llshl.o(.text)
    _ll_shift_l                              0x0801dabb   Thumb Code     0  llshl.o(.text)
    __aeabi_llsr                             0x0801dad9   Thumb Code    32  llushr.o(.text)
    _ll_ushift_r                             0x0801dad9   Thumb Code     0  llushr.o(.text)
    __aeabi_lasr                             0x0801daf9   Thumb Code    36  llsshr.o(.text)
    _ll_sshift_r                             0x0801daf9   Thumb Code     0  llsshr.o(.text)
    localtime                                0x0801db1d   Thumb Code     6  localtime_w.o(.text)
    _localtime                               0x0801db29   Thumb Code   134  localtime_i.o(.text)
    __strtod_int                             0x0801dbeb   Thumb Code    90  strtod.o(.text)
    __strtof_int                             0x0801dc51   Thumb Code    26  strtof.o(.text)
    strtol                                   0x0801dc6b   Thumb Code   112  strtol.o(.text)
    __I$use$fp                               0x0801dcdb   Thumb Code     0  iusefp.o(.text)
    __I$use$semihosting$fgetc                0x0801dcdb   Thumb Code     0  iusesemig.o(.text)
    __rt_ddtor_pointer_addr                  0x0801dcdd   Thumb Code     4  cpp_dtor.o(.text)
    __rt_SIGPVFN                             0x0801dce5   Thumb Code     2  cpp_signal.o(.text)
    __cxa_finalize                           0x0801dce7   Thumb Code    66  cxa_finalize.o(.text)
    _float_round                             0x0801dd29   Thumb Code    18  fepilogue.o(.text)
    _float_epilogue                          0x0801dd3b   Thumb Code    92  fepilogue.o(.text)
    __ARM_scalbnf                            0x0801dd97   Thumb Code    24  fscalb.o(.text)
    scalbnf                                  0x0801dd97   Thumb Code     0  fscalb.o(.text)
    _fsqrt                                   0x0801ddaf   Thumb Code    94  fsqrt.o(.text)
    _frnd                                    0x0801de0d   Thumb Code    60  frnd.o(.text)
    _frem                                    0x0801de49   Thumb Code    82  frem.o(.text)
    _double_round                            0x0801de9b   Thumb Code    30  depilogue.o(.text)
    _double_epilogue                         0x0801deb9   Thumb Code   156  depilogue.o(.text)
    __aeabi_ui2d                             0x0801df55   Thumb Code    26  dfltui.o(.text)
    __aeabi_d2ulz                            0x0801df6f   Thumb Code    48  dfixul.o(.text)
    _ffix_r                                  0x0801df9f   Thumb Code    76  ffixir.o(.text)
    __fp_status                              0x0801dfeb   Thumb Code     4  fpstat.o(.text)
    __ieee_status                            0x0801dfeb   Thumb Code     0  fpstat.o(.text)
    __default_new_handler()                  0x0801dfef   Thumb Code     4  arm_newhandler_noexceptions.o(.text)
    std::terminate()                         0x0801dff3   Thumb Code    26  arm_exceptions_terminate.o(.text)
    __cxa_get_globals                        0x0801e013   Thumb Code    62  arm_exceptions_globs.o(.text)
    __scatterload                            0x0801e05d   Thumb Code    28  init.o(.text)
    __scatterload_rt2                        0x0801e05d   Thumb Code     0  init.o(.text)
    _scanf_real                              0x0801e1a9   Thumb Code     0  scanf_fp.o(.text)
    _scanf_really_real                       0x0801e1a9   Thumb Code   556  scanf_fp.o(.text)
    _sgetc                                   0x0801e3e1   Thumb Code    30  _sgetc.o(.text)
    _sbackspace                              0x0801e3ff   Thumb Code    34  _sgetc.o(.text)
    _strtoul                                 0x0801e421   Thumb Code   158  _strtoul.o(.text)
    __I$use$semihosting$fputc                0x0801e4bf   Thumb Code     0  iusesemip.o(.text)
    __rt_lib_shutdown_cpp_2                  0x0801e4bf   Thumb Code     2  cpp_final.o(.text)
    __rt_new_handler_addr                    0x0801e4c1   Thumb Code     4  cpp_memory.o(.text)
    __rt_eh_globals_addr                     0x0801e4c5   Thumb Code    12  cpp_memory.o(.text)
    __ARM_exceptions_buffer_init             0x0801e4d5   Thumb Code    18  arm_exceptions_mem.o(.text)
    __ARM_exceptions_buffer_allocate         0x0801e4e7   Thumb Code    22  arm_exceptions_mem.o(.text)
    __ARM_exceptions_buffer_free             0x0801e4fd   Thumb Code    20  arm_exceptions_mem.o(.text)
    _chval                                   0x0801e511   Thumb Code    28  _chval.o(.text)
    __aeabi_ul2d                             0x0801e52d   Thumb Code    24  dfltul.o(.text)
    __ARM_scalbn                             0x0801e545   Thumb Code    46  dscalb.o(.text)
    scalbn                                   0x0801e545   Thumb Code     0  dscalb.o(.text)
    String::init()                           0x0801e573   Thumb Code    10  wstring.o(i._ZN6String4initEv)
    String::operator +=(char)                0x0801e57d   Thumb Code    18  stream.o(i._ZN6StringpLEc)
    String::operator ==(const char*) const   0x0801e58f   Thumb Code    16  lua_call.o(i._ZNK6StringeqEPKc)
    std::strstr(char*, const char*)          0x0801e59f   Thumb Code    16  wstring.o(i._ZSt6strstrPcPKc)
    operator delete[] (void*)                0x0801e5af   Thumb Code     8  array_del.o(i._ZdaPv)
    operator delete (void*)                  0x0801e5b7   Thumb Code     8  delete.o(i._ZdlPv)
    operator new[] (unsigned)                0x0801e5bf   Thumb Code     8  array_new.o(i._Znaj)
    operator new(unsigned)                   0x0801e5c9   Thumb Code    34  new.o(i._Znwj)
    __0fprintf                               0x0801e5f1   Thumb Code    22  printfa.o(i.__0fprintf)
    __1fprintf                               0x0801e5f1   Thumb Code     0  printfa.o(i.__0fprintf)
    __2fprintf                               0x0801e5f1   Thumb Code     0  printfa.o(i.__0fprintf)
    __c89fprintf                             0x0801e5f1   Thumb Code     0  printfa.o(i.__0fprintf)
    fprintf                                  0x0801e5f1   Thumb Code     0  printfa.o(i.__0fprintf)
    __0snprintf                              0x0801e60d   Thumb Code    44  printfa.o(i.__0snprintf)
    __1snprintf                              0x0801e60d   Thumb Code     0  printfa.o(i.__0snprintf)
    __2snprintf                              0x0801e60d   Thumb Code     0  printfa.o(i.__0snprintf)
    __c89snprintf                            0x0801e60d   Thumb Code     0  printfa.o(i.__0snprintf)
    snprintf                                 0x0801e60d   Thumb Code     0  printfa.o(i.__0snprintf)
    __0sprintf                               0x0801e63d   Thumb Code    34  printfa.o(i.__0sprintf)
    __1sprintf                               0x0801e63d   Thumb Code     0  printfa.o(i.__0sprintf)
    __2sprintf                               0x0801e63d   Thumb Code     0  printfa.o(i.__0sprintf)
    __c89sprintf                             0x0801e63d   Thumb Code     0  printfa.o(i.__0sprintf)
    sprintf                                  0x0801e63d   Thumb Code     0  printfa.o(i.__0sprintf)
    __0vsprintf                              0x0801e665   Thumb Code    30  printfa.o(i.__0vsprintf)
    __1vsprintf                              0x0801e665   Thumb Code     0  printfa.o(i.__0vsprintf)
    __2vsprintf                              0x0801e665   Thumb Code     0  printfa.o(i.__0vsprintf)
    __c89vsprintf                            0x0801e665   Thumb Code     0  printfa.o(i.__0vsprintf)
    vsprintf                                 0x0801e665   Thumb Code     0  printfa.o(i.__0vsprintf)
    __ARM_fpclassifyf                        0x0801e689   Thumb Code    38  fpclassifyf.o(i.__ARM_fpclassifyf)
    __aeabi_errno_addr                       0x0801e6b1   Thumb Code     4  errno.o(i.__aeabi_errno_addr)
    __rt_errno_addr                          0x0801e6b1   Thumb Code     0  errno.o(i.__aeabi_errno_addr)
    __cxa_pure_virtual                       0x0801e6b9   Thumb Code     6  pure_virt.o(i.__cxa_pure_virtual)
    free                                     0x0801e6c1   Thumb Code    88  mallocr.o(i.__free$realloc)
    malloc                                   0x0801e71d   Thumb Code    64  mallocr.o(i.__malloc$realloc)
    __mathlib_flt_divzero                    0x0801e76d   Thumb Code    10  funder.o(i.__mathlib_flt_divzero)
    __mathlib_flt_infnan                     0x0801e777   Thumb Code     6  funder.o(i.__mathlib_flt_infnan)
    __mathlib_flt_infnan2                    0x0801e77d   Thumb Code     4  funder.o(i.__mathlib_flt_infnan2)
    __mathlib_flt_invalid                    0x0801e781   Thumb Code     8  funder.o(i.__mathlib_flt_invalid)
    __mathlib_flt_overflow                   0x0801e789   Thumb Code    10  funder.o(i.__mathlib_flt_overflow)
    __mathlib_flt_underflow                  0x0801e793   Thumb Code    10  funder.o(i.__mathlib_flt_underflow)
    __mathlib_narrow                         0x0801e79d   Thumb Code    16  narrow.o(i.__mathlib_narrow)
    __mathlib_rredf2                         0x0801e7ad   Thumb Code   344  rredf.o(i.__mathlib_rredf2)
    __mathlib_tofloat                        0x0801e915   Thumb Code   184  narrow.o(i.__mathlib_tofloat)
    __read_errno                             0x0801e9d1   Thumb Code     6  errno.o(i.__read_errno)
    __scatterload_copy                       0x0801e9dd   Thumb Code    14  handlers.o(i.__scatterload_copy)
    __scatterload_null                       0x0801e9eb   Thumb Code     2  handlers.o(i.__scatterload_null)
    __scatterload_zeroinit                   0x0801e9ed   Thumb Code    14  handlers.o(i.__scatterload_zeroinit)
    __set_errno                              0x0801e9fd   Thumb Code     6  errno.o(i.__set_errno)
    _is_digit                                0x0801eb8d   Thumb Code    14  scanf_fp.o(i._is_digit)
    acosf                                    0x0801f2ed   Thumb Code   242  acosf.o(i.acosf)
    asinf                                    0x0801f409   Thumb Code   254  asinf.o(i.asinf)
    atan2f                                   0x0801f52d   Thumb Code   528  atan2f.o(i.atan2f)
    atof                                     0x0801f789   Thumb Code    42  atof.o(i.atof)
    __mathlib_ceilf                          0x0801f7b5   Thumb Code     0  ceilf.o(i.ceilf)
    ceilf                                    0x0801f7b5   Thumb Code   110  ceilf.o(i.ceilf)
    cosf                                     0x0801f82d   Thumb Code   328  cosf.o(i.cosf)
    difftime                                 0x0801f9a9   Thumb Code    32  difftime.o(i.difftime)
    __mathlib_expf                           0x0801f9c9   Thumb Code     0  expf.o(i.expf)
    expf                                     0x0801f9c9   Thumb Code   322  expf.o(i.expf)
    fgets                                    0x0801fb39   Thumb Code    60  fgets.o(i.fgets)
    floorf                                   0x0801fb75   Thumb Code   112  floorf.o(i.floorf)
    fmodf                                    0x0801fbf1   Thumb Code   108  fmodf.o(i.fmodf)
    fputc                                    0x0801fc5d   Thumb Code    18  fputc.o(i.fputc)
    fread                                    0x0801fc6f   Thumb Code    52  fread.o(i.fread)
    frexp                                    0x0801fca5   Thumb Code    80  frexp.o(i.frexp)
    frexpf                                   0x0801fcfd   Thumb Code    70  frexpf.o(i.frexpf)
    fwrite                                   0x0801fd43   Thumb Code    36  fwrite.o(i.fwrite)
    getc                                     0x0801fd67   Thumb Code     4  getc.o(i.getc)
    isspace                                  0x0801fdbd   Thumb Code    18  wstring.o(i.isspace)
    log10f                                   0x0801fdd1   Thumb Code   384  log10f.o(i.log10f)
    log2f                                    0x0801ff85   Thumb Code   362  log2f.o(i.log2f)
    __mathlib_logf                           0x0802011d   Thumb Code     0  logf.o(i.logf)
    logf                                     0x0802011d   Thumb Code   362  logf.o(i.logf)
    __mathlib_powf                           0x080202ad   Thumb Code     0  powf.o(i.powf)
    powf                                     0x080202ad   Thumb Code  1548  powf.o(i.powf)
    realloc                                  0x080208cd   Thumb Code   102  mallocr.o(i.realloc)
    sinf                                     0x08020939   Thumb Code   338  sinf.o(i.sinf)
    sqrtf                                    0x08020ac1   Thumb Code    44  sqrtf.o(i.sqrtf)
    strtof                                   0x08020aed   Thumb Code    20  strtof.o(i.strtof)
    tanf                                     0x08020b01   Thumb Code   314  tanf.o(i.tanf)
    lua_ident                                0x08020c74   Data         129  lapi.o(.constdata)
    luai_ctype_                              0x08020e48   Data         257  lctype.o(.constdata)
    luaO_nilobject_                          0x08021308   Data           8  lobject.o(.constdata)
    luaP_opnames                             0x08021410   Data         192  lopcodes.o(.constdata)
    luaP_opmodes                             0x080214d0   Data          47  lopcodes.o(.constdata)
    luaT_typenames_                          0x080216cc   Data          44  ltm.o(.constdata)
    PIN_MAP                                  0x080217a0   Data        1792  gpio.o(.constdata)
    __ctype_table                            0x080220d0   Data         129  ctype_o.o(.constdata)
    __internal_lconv                         0x080221dc   Data          56  ilconv.o(.constdata)
    vtable for HardwareSerial                0x08022220   Data          36  hardwareserial.o(.constdata__ZTV14HardwareSerial)
    vtable for Print                         0x08022244   Data          20  print.o(.constdata__ZTV5Print)
    vtable for Stream                        0x08022258   Data          36  hardwareserial.o(.constdata__ZTV6Stream)
    vtable for TwoWire                       0x0802227c   Data          16  wire.o(.constdata__ZTV7TwoWire)
    vtable for WireBase                      0x0802228c   Data          16  wirebase.o(.constdata__ZTV8WireBase)
    Region$$Table$$Base                      0x08022c84   Number         0  anon$$obj.o(Region$$Table)
    Region$$Table$$Limit                     0x08022ca4   Number         0  anon$$obj.o(Region$$Table)
    SHT$$INIT_ARRAY$$Base                    0x08022ca4   Number         0  hardwareserial.o(.init_array)
    SHT$$INIT_ARRAY$$Limit                   0x08022cb0   Number         0  cpp_init.o(.init_array)
    EXIT_func                                0x20000008   Data          64  exti.o(.data)
    _rx_buffer_head                          0x20000048   Data           6  usart.o(.data)
    _rx_buffer_tail                          0x2000004e   Data           6  usart.o(.data)
    USART_func                               0x20000054   Data          12  usart.o(.data)
    TIM_func                                 0x20000060   Data          32  time_exti.o(.data)
    LuaRunning                               0x20000080   Data           1  main.o(.data)
    SystemCoreClock                          0x20000098   Data           4  system_stm32f10x.o(.data)
    AHBPrescTable                            0x2000009c   Data          16  system_stm32f10x.o(.data)
    __stdin                                  0x200000b0   Data           4  stdin.o(.data)
    __stdout                                 0x200000b4   Data           4  stdout.o(.data)
    __stderr                                 0x200000b8   Data           4  stderr.o(.data)
    __microlib_freelist                      0x200000c4   Data           4  mvars.o(.data)
    __microlib_freelist_initialised          0x200000c8   Data           4  mvars.o(.data)
    Serial                                   0x200000dc   Data          24  hardwareserial.o(.bss)
    Serial2                                  0x200000f4   Data          24  hardwareserial.o(.bss)
    Serial3                                  0x2000010c   Data          24  hardwareserial.o(.bss)
    Wire                                     0x20000124   Data          88  wire.o(.bss)
    SPI                                      0x2000017c   Data          24  spi.o(.bss)
    SPI_2                                    0x20000194   Data          24  spi.o(.bss)
    ADC_ConvertedValue                       0x200001ac   Data          16  adc.o(.bss)
    _rx_buffer                               0x200001bc   Data         384  usart.o(.bss)
    __heap_base                              0x20000368   Data           0  startup_stm32f10x_hd.o(HEAP)
    __heap_limit                             0x20008368   Data           0  startup_stm32f10x_hd.o(HEAP)
    __initial_sp                             0x20009368   Data           0  startup_stm32f10x_hd.o(STACK)



==============================================================================

Memory Map of the image

  Image Entry point : 0x08000131

  Load Region LR_IROM1 (Base: 0x08000000, Size: 0x00022d8c, Max: 0x00080000, ABSOLUTE)

    Execution Region ER_IROM1 (Exec base: 0x08000000, Load base: 0x08000000, Size: 0x00022cb0, Max: 0x00080000, ABSOLUTE)

    Exec Addr    Load Addr    Size         Type   Attr      Idx    E Section Name        Object

    0x08000000   0x08000000   0x00000130   Data   RO         2106    RESET               startup_stm32f10x_hd.o
    0x08000130   0x08000130   0x00000000   Code   RO         2395  * .ARM.Collect$$$$00000000  mc_w.l(entry.o)
    0x08000130   0x08000130   0x00000004   Code   RO         2945    .ARM.Collect$$$$00000001  mc_w.l(entry2.o)
    0x08000134   0x08000134   0x00000004   Code   RO         2948    .ARM.Collect$$$$00000004  mc_w.l(entry5.o)
    0x08000138   0x08000138   0x00000000   Code   RO         2950    .ARM.Collect$$$$00000008  mc_w.l(entry7b.o)
    0x08000138   0x08000138   0x00000004   Code   RO         2951    .ARM.Collect$$$$00000009  mc_w.l(entry8a.o)
    0x0800013c   0x0800013c   0x00000000   Code   RO         2952    .ARM.Collect$$$$0000000A  mc_w.l(entry8b.o)
    0x0800013c   0x0800013c   0x00000008   Code   RO         2953    .ARM.Collect$$$$0000000B  mc_w.l(entry9a.o)
    0x08000144   0x08000144   0x00000000   Code   RO         2955    .ARM.Collect$$$$0000000D  mc_w.l(entry10a.o)
    0x08000144   0x08000144   0x00000004   Code   RO         2956    .ARM.Collect$$$$0000000E  mc_w.l(entry10b.o)
    0x08000148   0x08000148   0x00000000   Code   RO         2957    .ARM.Collect$$$$0000000F  mc_w.l(entry11a.o)
    0x08000148   0x08000148   0x00000004   Code   RO         2946    .ARM.Collect$$$$00002712  mc_w.l(entry2.o)
    0x0800014c   0x0800014c   0x00000018   Code   RO         1738    .emb_text           main.o
    0x08000164   0x08000164   0x00000320   Code   RO            4    .text               arduino.o
    0x08000484   0x08000484   0x00000040   Code   RO          104    .text               dtostrf.o
    0x080004c4   0x080004c4   0x00000122   Code   RO          123    .text               itoa.o
    0x080005e6   0x080005e6   0x00000002   PAD
    0x080005e8   0x080005e8   0x000005cc   Code   RO          141    .text               print.o
    0x08000bb4   0x08000bb4   0x00000184   Code   RO          213    .text               hardwareserial.o
    0x08000d38   0x08000d38   0x0000048c   Code   RO          365    .text               stream.o
    0x080011c4   0x080011c4   0x00000cba   Code   RO          465    .text               wstring.o
    0x08001e7e   0x08001e7e   0x00000002   PAD
    0x08001e80   0x08001e80   0x000002ac   Code   RO          529    .text               wire.o
    0x0800212c   0x0800212c   0x000003d0   Code   RO          604    .text               spi.o
    0x080024fc   0x080024fc   0x00001726   Code   RO          632    .text               lapi.o
    0x08003c22   0x08003c22   0x00000002   PAD
    0x08003c24   0x08003c24   0x000014fc   Code   RO          712    .text               lauxlib.o
    0x08005120   0x08005120   0x00000a8c   Code   RO          747    .text               lbaselib.o
    0x08005bac   0x08005bac   0x000012e4   Code   RO          798    .text               lcode.o
    0x08006e90   0x08006e90   0x00000344   Code   RO          853    .text               lcorolib.o
    0x080071d4   0x080071d4   0x00000a98   Code   RO          894    .text               ldblib.o
    0x08007c6c   0x08007c6c   0x00000d04   Code   RO          909    .text               ldebug.o
    0x08008970   0x08008970   0x00000d88   Code   RO          957    .text               ldo.o
    0x080096f8   0x080096f8   0x000003b8   Code   RO         1006    .text               ldump.o
    0x08009ab0   0x08009ab0   0x0000024c   Code   RO         1035    .text               lfunc.o
    0x08009cfc   0x08009cfc   0x000011fc   Code   RO         1047    .text               lgc.o
    0x0800aef8   0x0800aef8   0x0000002c   Code   RO         1082    .text               linit.o
    0x0800af24   0x0800af24   0x00000dec   Code   RO         1097    .text               liolib.o
    0x0800bd10   0x0800bd10   0x0000114c   Code   RO         1121    .text               llex.o
    0x0800ce5c   0x0800ce5c   0x00000728   Code   RO         1166    .text               lmathlib.o
    0x0800d584   0x0800d584   0x00000124   Code   RO         1188    .text               lmem.o
    0x0800d6a8   0x0800d6a8   0x00000b20   Code   RO         1203    .text               loadlib.o
    0x0800e1c8   0x0800e1c8   0x000008b8   Code   RO         1218    .text               lobject.o
    0x0800ea80   0x0800ea80   0x00000728   Code   RO         1272    .text               loslib.o
    0x0800f1a8   0x0800f1a8   0x00002182   Code   RO         1315    .text               lparser.o
    0x0801132a   0x0801132a   0x00000002   PAD
    0x0801132c   0x0801132c   0x00000410   Code   RO         1339    .text               lstate.o
    0x0801173c   0x0801173c   0x000003f0   Code   RO         1357    .text               lstring.o
    0x08011b2c   0x08011b2c   0x0000228c   Code   RO         1369    .text               lstrlib.o
    0x08013db8   0x08013db8   0x00000a90   Code   RO         1390    .text               ltable.o
    0x08014848   0x08014848   0x000008ac   Code   RO         1404    .text               ltablib.o
    0x080150f4   0x080150f4   0x000002b0   Code   RO         1419    .text               ltm.o
    0x080153a4   0x080153a4   0x000006c4   Code   RO         1438    .text               lundump.o
    0x08015a68   0x08015a68   0x00000524   Code   RO         1450    .text               lutf8lib.o
    0x08015f8c   0x08015f8c   0x00002ca6   Code   RO         1468    .text               lvm.o
    0x08018c32   0x08018c32   0x0000009e   Code   RO         1507    .text               lzio.o
    0x08018cd0   0x08018cd0   0x00000094   Code   RO         1522    .text               delay.o
    0x08018d64   0x08018d64   0x00000250   Code   RO         1557    .text               exti.o
    0x08018fb4   0x08018fb4   0x00000150   Code   RO         1587    .text               gpio.o
    0x08019104   0x08019104   0x000002c0   Code   RO         1623    .text               adc.o
    0x080193c4   0x080193c4   0x0000020c   Code   RO         1653    .text               pwm.o
    0x080195d0   0x080195d0   0x0000025c   Code   RO         1677    .text               usart.o
    0x0801982c   0x0801982c   0x00000300   Code   RO         1708    .text               time_exti.o
    0x08019b2c   0x08019b2c   0x000002ac   Code   RO         1739    .text               main.o
    0x08019dd8   0x08019dd8   0x000006f0   Code   RO         1839    .text               lua_call.o
    0x0801a4c8   0x0801a4c8   0x000000dc   Code   RO         1889    .text               misc.o
    0x0801a5a4   0x0801a5a4   0x0000044e   Code   RO         1913    .text               stm32f10x_adc.o
    0x0801a9f2   0x0801a9f2   0x00000002   PAD
    0x0801a9f4   0x0801a9f4   0x00000254   Code   RO         1937    .text               stm32f10x_dma.o
    0x0801ac48   0x0801ac48   0x0000011c   Code   RO         1961    .text               stm32f10x_exti.o
    0x0801ad64   0x0801ad64   0x0000035c   Code   RO         1985    .text               stm32f10x_gpio.o
    0x0801b0c0   0x0801b0c0   0x000003a4   Code   RO         2009    .text               stm32f10x_rcc.o
    0x0801b464   0x0801b464   0x0000030c   Code   RO         2035    .text               stm32f10x_spi.o
    0x0801b770   0x0801b770   0x00000e1a   Code   RO         2059    .text               stm32f10x_tim.o
    0x0801c58a   0x0801c58a   0x00000002   PAD
    0x0801c58c   0x0801c58c   0x00000408   Code   RO         2083    .text               stm32f10x_usart.o
    0x0801c994   0x0801c994   0x00000024   Code   RO         2107    .text               startup_stm32f10x_hd.o
    0x0801c9b8   0x0801c9b8   0x000001e0   Code   RO         2114    .text               system_stm32f10x.o
    0x0801cb98   0x0801cb98   0x00000038   Code   RO         2398    .text               mc_w.l(fgetc_u.o)
    0x0801cbd0   0x0801cbd0   0x00000062   Code   RO         2445    .text               mc_w.l(uldiv.o)
    0x0801cc32   0x0801cc32   0x00000002   PAD
    0x0801cc34   0x0801cc34   0x00000008   Code   RO         2447    .text               mc_w.l(ctype_o.o)
    0x0801cc3c   0x0801cc3c   0x0000000c   Code   RO         2475    .text               mc_w.l(toupper.o)
    0x0801cc48   0x0801cc48   0x0000000c   Code   RO         2477    .text               mc_w.l(tolower.o)
    0x0801cc54   0x0801cc54   0x00000024   Code   RO         2479    .text               mc_w.l(rand.o)
    0x0801cc78   0x0801cc78   0x00000008   Code   RO         2488    .text               mc_w.l(localeconv.o)
    0x0801cc80   0x0801cc80   0x000000a8   Code   RO         2494    .text               mc_w.l(mktime.o)
    0x0801cd28   0x0801cd28   0x00000394   Code   RO         2497    .text               mc_w.l(strftime.o)
    0x0801d0bc   0x0801d0bc   0x00000040   Code   RO         2509    .text               mc_w.l(memmovea.o)
    0x0801d0fc   0x0801d0fc   0x00000024   Code   RO         2511    .text               mc_w.l(strstr.o)
    0x0801d120   0x0801d120   0x00000018   Code   RO         2513    .text               mc_w.l(strncpy.o)
    0x0801d138   0x0801d138   0x00000014   Code   RO         2515    .text               mc_w.l(strchr.o)
    0x0801d14c   0x0801d14c   0x0000000e   Code   RO         2517    .text               mc_w.l(strlen.o)
    0x0801d15a   0x0801d15a   0x0000001c   Code   RO         2519    .text               mc_w.l(strcmp.o)
    0x0801d176   0x0801d176   0x00000014   Code   RO         2521    .text               mc_w.l(memchr.o)
    0x0801d18a   0x0801d18a   0x0000001a   Code   RO         2523    .text               mc_w.l(memcmp.o)
    0x0801d1a4   0x0801d1a4   0x00000004   Code   RO         2525    .text               mc_w.l(strcoll.o)
    0x0801d1a8   0x0801d1a8   0x00000012   Code   RO         2527    .text               mc_w.l(strcpy.o)
    0x0801d1ba   0x0801d1ba   0x0000001e   Code   RO         2529    .text               mc_w.l(strncmp.o)
    0x0801d1d8   0x0801d1d8   0x00000020   Code   RO         2531    .text               mc_w.l(strrchr.o)
    0x0801d1f8   0x0801d1f8   0x0000001c   Code   RO         2533    .text               mc_w.l(strspn.o)
    0x0801d214   0x0801d214   0x00000020   Code   RO         2535    .text               mc_w.l(strpbrk.o)
    0x0801d234   0x0801d234   0x000000e4   Code   RO         2537    .text               mc_w.l(strerror.o)
    0x0801d318   0x0801d318   0x0000001a   Code   RO         2839    .text               mc_w.l(atol.o)
    0x0801d332   0x0801d332   0x00000002   PAD
    0x0801d334   0x0801d334   0x00000020   Code   RO         2844    .text               mc_w.l(cpp_init.o)
    0x0801d354   0x0801d354   0x0000002e   Code   RO         2846    .text               mc_w.l(aeabi_atexit.o)
    0x0801d382   0x0801d382   0x000000b0   Code   RO         2848    .text               mf_w.l(fadd.o)
    0x0801d432   0x0801d432   0x00000064   Code   RO         2850    .text               mf_w.l(fmul.o)
    0x0801d496   0x0801d496   0x0000007c   Code   RO         2852    .text               mf_w.l(fdiv.o)
    0x0801d512   0x0801d512   0x0000014e   Code   RO         2854    .text               mf_w.l(dadd.o)
    0x0801d660   0x0801d660   0x000000e4   Code   RO         2856    .text               mf_w.l(dmul.o)
    0x0801d744   0x0801d744   0x000000de   Code   RO         2858    .text               mf_w.l(ddiv.o)
    0x0801d822   0x0801d822   0x00000012   Code   RO         2860    .text               mf_w.l(fflti.o)
    0x0801d834   0x0801d834   0x0000000a   Code   RO         2862    .text               mf_w.l(ffltui.o)
    0x0801d83e   0x0801d83e   0x00000022   Code   RO         2864    .text               mf_w.l(dflti.o)
    0x0801d860   0x0801d860   0x00000028   Code   RO         2866    .text               mf_w.l(dfltl.o)
    0x0801d888   0x0801d888   0x00000032   Code   RO         2868    .text               mf_w.l(ffixi.o)
    0x0801d8ba   0x0801d8ba   0x00000028   Code   RO         2870    .text               mf_w.l(ffixui.o)
    0x0801d8e2   0x0801d8e2   0x0000003e   Code   RO         2872    .text               mf_w.l(dfixi.o)
    0x0801d920   0x0801d920   0x0000004a   Code   RO         2874    .text               mf_w.l(dfixl.o)
    0x0801d96a   0x0801d96a   0x00000026   Code   RO         2876    .text               mf_w.l(f2d.o)
    0x0801d990   0x0801d990   0x00000030   Code   RO         2878    .text               mf_w.l(cdcmple.o)
    0x0801d9c0   0x0801d9c0   0x00000030   Code   RO         2880    .text               mf_w.l(cdrcmple.o)
    0x0801d9f0   0x0801d9f0   0x00000038   Code   RO         2882    .text               mf_w.l(d2f.o)
    0x0801da28   0x0801da28   0x00000014   Code   RO         2884    .text               mf_w.l(cfcmple.o)
    0x0801da3c   0x0801da3c   0x00000014   Code   RO         2886    .text               mf_w.l(cfrcmple.o)
    0x0801da50   0x0801da50   0x0000003e   Code   RO         2888    .text               mf_w.l(setjmp.o)
    0x0801da8e   0x0801da8e   0x00000000   Code   RO         2966    .text               mc_w.l(semi.o)
    0x0801da8e   0x0801da8e   0x0000002c   Code   RO         2967    .text               mc_w.l(uidiv.o)
    0x0801daba   0x0801daba   0x0000001e   Code   RO         2969    .text               mc_w.l(llshl.o)
    0x0801dad8   0x0801dad8   0x00000020   Code   RO         2971    .text               mc_w.l(llushr.o)
    0x0801daf8   0x0801daf8   0x00000024   Code   RO         2973    .text               mc_w.l(llsshr.o)
    0x0801db1c   0x0801db1c   0x0000000c   Code   RO         2977    .text               mc_w.l(localtime_w.o)
    0x0801db28   0x0801db28   0x0000008c   Code   RO         2980    .text               mc_w.l(localtime_i.o)
    0x0801dbb4   0x0801dbb4   0x0000009c   Code   RO         2985    .text               mc_w.l(strtod.o)
    0x0801dc50   0x0801dc50   0x0000001a   Code   RO         2987    .text               mc_w.l(strtof.o)
    0x0801dc6a   0x0801dc6a   0x00000070   Code   RO         2989    .text               mc_w.l(strtol.o)
    0x0801dcda   0x0801dcda   0x00000000   Code   RO         2991    .text               mc_w.l(iusefp.o)
    0x0801dcda   0x0801dcda   0x00000000   Code   RO         2992    .text               mc_w.l(iusesemig.o)
    0x0801dcda   0x0801dcda   0x00000002   PAD
    0x0801dcdc   0x0801dcdc   0x00000008   Code   RO         2993    .text               mc_w.l(cpp_dtor.o)
    0x0801dce4   0x0801dce4   0x00000002   Code   RO         2996    .text               mc_w.l(cpp_signal.o)
    0x0801dce6   0x0801dce6   0x00000042   Code   RO         2998    .text               mc_w.l(cxa_finalize.o)
    0x0801dd28   0x0801dd28   0x0000006e   Code   RO         3000    .text               mf_w.l(fepilogue.o)
    0x0801dd96   0x0801dd96   0x00000018   Code   RO         3002    .text               mf_w.l(fscalb.o)
    0x0801ddae   0x0801ddae   0x0000005e   Code   RO         3004    .text               mf_w.l(fsqrt.o)
    0x0801de0c   0x0801de0c   0x0000003c   Code   RO         3006    .text               mf_w.l(frnd.o)
    0x0801de48   0x0801de48   0x00000052   Code   RO         3008    .text               mf_w.l(frem.o)
    0x0801de9a   0x0801de9a   0x000000ba   Code   RO         3010    .text               mf_w.l(depilogue.o)
    0x0801df54   0x0801df54   0x0000001a   Code   RO         3012    .text               mf_w.l(dfltui.o)
    0x0801df6e   0x0801df6e   0x00000030   Code   RO         3014    .text               mf_w.l(dfixul.o)
    0x0801df9e   0x0801df9e   0x0000004c   Code   RO         3016    .text               mf_w.l(ffixir.o)
    0x0801dfea   0x0801dfea   0x00000004   Code   RO         3018    .text               mf_w.l(fpstat.o)
    0x0801dfee   0x0801dfee   0x00000004   Code   RO         3023    .text               cpprt_w.l(arm_newhandler_noexceptions.o)
    0x0801dff2   0x0801dff2   0x0000001a   Code   RO         3039    .text               cpprt_w.l(arm_exceptions_terminate.o)
    0x0801e00c   0x0801e00c   0x00000050   Code   RO         3046    .text               cpprt_w.l(arm_exceptions_globs.o)
    0x0801e05c   0x0801e05c   0x00000024   Code   RO         3058    .text               mc_w.l(init.o)
    0x0801e080   0x0801e080   0x00000360   Code   RO         3060    .text               mc_w.l(scanf_fp.o)
    0x0801e3e0   0x0801e3e0   0x00000040   Code   RO         3064    .text               mc_w.l(_sgetc.o)
    0x0801e420   0x0801e420   0x0000009e   Code   RO         3066    .text               mc_w.l(_strtoul.o)
    0x0801e4be   0x0801e4be   0x00000000   Code   RO         3068    .text               mc_w.l(iusesemip.o)
    0x0801e4be   0x0801e4be   0x00000002   Code   RO         3069    .text               mc_w.l(cpp_final.o)
    0x0801e4c0   0x0801e4c0   0x00000014   Code   RO         3071    .text               mc_w.l(cpp_memory.o)
    0x0801e4d4   0x0801e4d4   0x0000003c   Code   RO         3077    .text               cpprt_w.l(arm_exceptions_mem.o)
    0x0801e510   0x0801e510   0x0000001c   Code   RO         3091    .text               mc_w.l(_chval.o)
    0x0801e52c   0x0801e52c   0x00000018   Code   RO         3093    .text               mf_w.l(dfltul.o)
    0x0801e544   0x0801e544   0x0000002e   Code   RO         3097    .text               mf_w.l(dscalb.o)
    0x0801e572   0x0801e572   0x0000000a   Code   RO          482    i._ZN6String4initEv  wstring.o
    0x0801e57c   0x0801e57c   0x00000012   Code   RO          384    i._ZN6StringpLEc    stream.o
    0x0801e58e   0x0801e58e   0x00000010   Code   RO         1859    i._ZNK6StringeqEPKc  lua_call.o
    0x0801e59e   0x0801e59e   0x00000010   Code   RO          488    i._ZSt6strstrPcPKc  wstring.o
    0x0801e5ae   0x0801e5ae   0x00000008   Code   RO         2141    i._ZdaPv            cpprt_w.l(array_del.o)
    0x0801e5b6   0x0801e5b6   0x00000008   Code   RO         2890    i._ZdlPv            cpprt_w.l(delete.o)
    0x0801e5be   0x0801e5be   0x00000008   Code   RO         2144    i._Znaj             cpprt_w.l(array_new.o)
    0x0801e5c6   0x0801e5c6   0x00000002   PAD
    0x0801e5c8   0x0801e5c8   0x00000028   Code   RO         2893    i._Znwj             cpprt_w.l(new.o)
    0x0801e5f0   0x0801e5f0   0x0000001c   Code   RO         2775    i.__0fprintf        mc_w.l(printfa.o)
    0x0801e60c   0x0801e60c   0x00000030   Code   RO         2777    i.__0snprintf       mc_w.l(printfa.o)
    0x0801e63c   0x0801e63c   0x00000028   Code   RO         2778    i.__0sprintf        mc_w.l(printfa.o)
    0x0801e664   0x0801e664   0x00000024   Code   RO         2782    i.__0vsprintf       mc_w.l(printfa.o)
    0x0801e688   0x0801e688   0x00000026   Code   RO         2926    i.__ARM_fpclassifyf  m_ws.l(fpclassifyf.o)
    0x0801e6ae   0x0801e6ae   0x00000002   PAD
    0x0801e6b0   0x0801e6b0   0x00000008   Code   RO         2832    i.__aeabi_errno_addr  mc_w.l(errno.o)
    0x0801e6b8   0x0801e6b8   0x00000006   Code   RO         2148    i.__cxa_pure_virtual  cpprt_w.l(pure_virt.o)
    0x0801e6be   0x0801e6be   0x00000002   PAD
    0x0801e6c0   0x0801e6c0   0x0000005c   Code   RO         2808    i.__free$realloc    mc_w.l(mallocr.o)
    0x0801e71c   0x0801e71c   0x00000050   Code   RO         2809    i.__malloc$realloc  mc_w.l(mallocr.o)
    0x0801e76c   0x0801e76c   0x0000000a   Code   RO         2928    i.__mathlib_flt_divzero  m_ws.l(funder.o)
    0x0801e776   0x0801e776   0x00000006   Code   RO         2929    i.__mathlib_flt_infnan  m_ws.l(funder.o)
    0x0801e77c   0x0801e77c   0x00000004   Code   RO         2930    i.__mathlib_flt_infnan2  m_ws.l(funder.o)
    0x0801e780   0x0801e780   0x00000008   Code   RO         2931    i.__mathlib_flt_invalid  m_ws.l(funder.o)
    0x0801e788   0x0801e788   0x0000000a   Code   RO         2932    i.__mathlib_flt_overflow  m_ws.l(funder.o)
    0x0801e792   0x0801e792   0x0000000a   Code   RO         2934    i.__mathlib_flt_underflow  m_ws.l(funder.o)
    0x0801e79c   0x0801e79c   0x00000010   Code   RO         3052    i.__mathlib_narrow  m_ws.l(narrow.o)
    0x0801e7ac   0x0801e7ac   0x00000168   Code   RO         2942    i.__mathlib_rredf2  m_ws.l(rredf.o)
    0x0801e914   0x0801e914   0x000000bc   Code   RO         3053    i.__mathlib_tofloat  m_ws.l(narrow.o)
    0x0801e9d0   0x0801e9d0   0x0000000c   Code   RO         2833    i.__read_errno      mc_w.l(errno.o)
    0x0801e9dc   0x0801e9dc   0x0000000e   Code   RO         3101    i.__scatterload_copy  mc_w.l(handlers.o)
    0x0801e9ea   0x0801e9ea   0x00000002   Code   RO         3102    i.__scatterload_null  mc_w.l(handlers.o)
    0x0801e9ec   0x0801e9ec   0x0000000e   Code   RO         3103    i.__scatterload_zeroinit  mc_w.l(handlers.o)
    0x0801e9fa   0x0801e9fa   0x00000002   PAD
    0x0801e9fc   0x0801e9fc   0x0000000c   Code   RO         2834    i.__set_errno       mc_w.l(errno.o)
    0x0801ea08   0x0801ea08   0x00000184   Code   RO         2783    i._fp_digits        mc_w.l(printfa.o)
    0x0801eb8c   0x0801eb8c   0x0000000e   Code   RO         3062    i._is_digit         mc_w.l(scanf_fp.o)
    0x0801eb9a   0x0801eb9a   0x00000002   PAD
    0x0801eb9c   0x0801eb9c   0x000006dc   Code   RO         2784    i._printf_core      mc_w.l(printfa.o)
    0x0801f278   0x0801f278   0x00000024   Code   RO         2785    i._printf_post_padding  mc_w.l(printfa.o)
    0x0801f29c   0x0801f29c   0x0000002e   Code   RO         2786    i._printf_pre_padding  mc_w.l(printfa.o)
    0x0801f2ca   0x0801f2ca   0x00000016   Code   RO         2787    i._snputc           mc_w.l(printfa.o)
    0x0801f2e0   0x0801f2e0   0x0000000a   Code   RO         2788    i._sputc            mc_w.l(printfa.o)
    0x0801f2ea   0x0801f2ea   0x00000002   PAD
    0x0801f2ec   0x0801f2ec   0x0000011c   Code   RO         2258    i.acosf             m_ws.l(acosf.o)
    0x0801f408   0x0801f408   0x00000124   Code   RO         2266    i.asinf             m_ws.l(asinf.o)
    0x0801f52c   0x0801f52c   0x0000025c   Code   RO         2274    i.atan2f            m_ws.l(atan2f.o)
    0x0801f788   0x0801f788   0x0000002a   Code   RO         2282    i.atof              m_ws.l(atof.o)
    0x0801f7b2   0x0801f7b2   0x00000002   PAD
    0x0801f7b4   0x0801f7b4   0x00000078   Code   RO         2286    i.ceilf             m_ws.l(ceilf.o)
    0x0801f82c   0x0801f82c   0x0000017c   Code   RO         2290    i.cosf              m_ws.l(cosf.o)
    0x0801f9a8   0x0801f9a8   0x00000020   Code   RO         2298    i.difftime          m_ws.l(difftime.o)
    0x0801f9c8   0x0801f9c8   0x00000170   Code   RO         2302    i.expf              m_ws.l(expf.o)
    0x0801fb38   0x0801fb38   0x0000003c   Code   RO         2406    i.fgets             mc_w.l(fgets.o)
    0x0801fb74   0x0801fb74   0x0000007c   Code   RO         2312    i.floorf            m_ws.l(floorf.o)
    0x0801fbf0   0x0801fbf0   0x0000006c   Code   RO         2316    i.fmodf             m_ws.l(fmodf.o)
    0x0801fc5c   0x0801fc5c   0x00000012   Code   RO         2964    i.fputc             mc_w.l(fputc.o)
    0x0801fc6e   0x0801fc6e   0x00000034   Code   RO         2408    i.fread             mc_w.l(fread.o)
    0x0801fca2   0x0801fca2   0x00000002   PAD
    0x0801fca4   0x0801fca4   0x00000058   Code   RO         3088    i.frexp             m_ws.l(frexp.o)
    0x0801fcfc   0x0801fcfc   0x00000046   Code   RO         2324    i.frexpf            m_ws.l(frexpf.o)
    0x0801fd42   0x0801fd42   0x00000024   Code   RO         2404    i.fwrite            mc_w.l(fwrite.o)
    0x0801fd66   0x0801fd66   0x00000004   Code   RO         2410    i.getc              mc_w.l(getc.o)
    0x0801fd6a   0x0801fd6a   0x00000002   PAD
    0x0801fd6c   0x0801fd6c   0x00000050   Code   RO         2810    i.internal_alloc    mc_w.l(mallocr.o)
    0x0801fdbc   0x0801fdbc   0x00000012   Code   RO          476    i.isspace           wstring.o
    0x0801fdce   0x0801fdce   0x00000002   PAD
    0x0801fdd0   0x0801fdd0   0x000001b4   Code   RO         2328    i.log10f            m_ws.l(log10f.o)
    0x0801ff84   0x0801ff84   0x00000198   Code   RO         2338    i.log2f             m_ws.l(log2f.o)
    0x0802011c   0x0802011c   0x00000190   Code   RO         2348    i.logf              m_ws.l(logf.o)
    0x080202ac   0x080202ac   0x00000620   Code   RO         2358    i.powf              m_ws.l(powf.o)
    0x080208cc   0x080208cc   0x0000006c   Code   RO         2811    i.realloc           mc_w.l(mallocr.o)
    0x08020938   0x08020938   0x00000188   Code   RO         2368    i.sinf              m_ws.l(sinf.o)
    0x08020ac0   0x08020ac0   0x0000002c   Code   RO         2376    i.sqrtf             m_ws.l(sqrtf.o)
    0x08020aec   0x08020aec   0x00000014   Code   RO         2384    i.strtof            m_ws.l(strtof.o)
    0x08020b00   0x08020b00   0x00000174   Code   RO         2388    i.tanf              m_ws.l(tanf.o)
    0x08020c74   0x08020c74   0x00000088   Data   RO          633    .constdata          lapi.o
    0x08020cfc   0x08020cfc   0x0000010c   Data   RO          748    .constdata          lbaselib.o
    0x08020e08   0x08020e08   0x00000040   Data   RO          854    .constdata          lcorolib.o
    0x08020e48   0x08020e48   0x00000101   Data   RO          879    .constdata          lctype.o
    0x08020f49   0x08020f49   0x00000003   PAD
    0x08020f4c   0x08020f4c   0x000000a0   Data   RO          895    .constdata          ldblib.o
    0x08020fec   0x08020fec   0x00000058   Data   RO         1083    .constdata          linit.o
    0x08021044   0x08021044   0x000000e8   Data   RO         1098    .constdata          liolib.o
    0x0802112c   0x0802112c   0x00000094   Data   RO         1122    .constdata          llex.o
    0x080211c0   0x080211c0   0x000000e0   Data   RO         1167    .constdata          lmathlib.o
    0x080212a0   0x080212a0   0x00000068   Data   RO         1204    .constdata          loadlib.o
    0x08021308   0x08021308   0x00000108   Data   RO         1219    .constdata          lobject.o
    0x08021410   0x08021410   0x000000ef   Data   RO         1256    .constdata          lopcodes.o
    0x080214ff   0x080214ff   0x00000001   PAD
    0x08021500   0x08021500   0x000000ac   Data   RO         1273    .constdata          loslib.o
    0x080215ac   0x080215ac   0x0000002a   Data   RO         1316    .constdata          lparser.o
    0x080215d6   0x080215d6   0x00000002   PAD
    0x080215d8   0x080215d8   0x00000094   Data   RO         1370    .constdata          lstrlib.o
    0x0802166c   0x0802166c   0x00000014   Data   RO         1391    .constdata          ltable.o
    0x08021680   0x08021680   0x00000040   Data   RO         1405    .constdata          ltablib.o
    0x080216c0   0x080216c0   0x00000098   Data   RO         1420    .constdata          ltm.o
    0x08021758   0x08021758   0x00000048   Data   RO         1451    .constdata          lutf8lib.o
    0x080217a0   0x080217a0   0x00000700   Data   RO         1588    .constdata          gpio.o
    0x08021ea0   0x08021ea0   0x00000030   Data   RO         2303    .constdata          m_ws.l(expf.o)
    0x08021ed0   0x08021ed0   0x00000040   Data   RO         2329    .constdata          m_ws.l(log10f.o)
    0x08021f10   0x08021f10   0x00000040   Data   RO         2339    .constdata          m_ws.l(log2f.o)
    0x08021f50   0x08021f50   0x00000040   Data   RO         2349    .constdata          m_ws.l(logf.o)
    0x08021f90   0x08021f90   0x00000140   Data   RO         2359    .constdata          m_ws.l(powf.o)
    0x080220d0   0x080220d0   0x00000081   Data   RO         2448    .constdata          mc_w.l(ctype_o.o)
    0x08022151   0x08022151   0x00000003   PAD
    0x08022154   0x08022154   0x00000004   Data   RO         2449    .constdata          mc_w.l(ctype_o.o)
    0x08022158   0x08022158   0x0000000c   Data   RO         2495    .constdata          mc_w.l(mktime.o)
    0x08022164   0x08022164   0x00000056   Data   RO         2498    .constdata          mc_w.l(strftime.o)
    0x080221ba   0x080221ba   0x00000002   PAD
    0x080221bc   0x080221bc   0x00000020   Data   RO         2943    .constdata          m_ws.l(rredf.o)
    0x080221dc   0x080221dc   0x00000038   Data   RO         2975    .constdata          mc_w.l(ilconv.o)
    0x08022214   0x08022214   0x0000000c   Data   RO         2981    .constdata          mc_w.l(localtime_i.o)
    0x08022220   0x08022220   0x00000024   Data   RO          237    .constdata__ZTV14HardwareSerial  hardwareserial.o
    0x08022244   0x08022244   0x00000014   Data   RO          152    .constdata__ZTV5Print  print.o
    0x08022258   0x08022258   0x00000024   Data   RO          239    .constdata__ZTV6Stream  hardwareserial.o
    0x0802227c   0x0802227c   0x00000010   Data   RO          552    .constdata__ZTV7TwoWire  wire.o
    0x0802228c   0x0802228c   0x00000010   Data   RO          592    .constdata__ZTV8WireBase  wirebase.o
    0x0802229c   0x0802229c   0x00000131   Data   RO          749    .conststring        lbaselib.o
    0x080223cd   0x080223cd   0x00000003   PAD
    0x080223d0   0x080223d0   0x0000003b   Data   RO          855    .conststring        lcorolib.o
    0x0802240b   0x0802240b   0x00000001   PAD
    0x0802240c   0x0802240c   0x000000c4   Data   RO          896    .conststring        ldblib.o
    0x080224d0   0x080224d0   0x0000003b   Data   RO         1084    .conststring        linit.o
    0x0802250b   0x0802250b   0x00000001   PAD
    0x0802250c   0x0802250c   0x0000008b   Data   RO         1099    .conststring        liolib.o
    0x08022597   0x08022597   0x00000001   PAD
    0x08022598   0x08022598   0x000000d8   Data   RO         1123    .conststring        llex.o
    0x08022670   0x08022670   0x000000b0   Data   RO         1168    .conststring        lmathlib.o
    0x08022720   0x08022720   0x00000126   Data   RO         1205    .conststring        loadlib.o
    0x08022846   0x08022846   0x00000002   PAD
    0x08022848   0x08022848   0x0000015f   Data   RO         1257    .conststring        lopcodes.o
    0x080229a7   0x080229a7   0x00000001   PAD
    0x080229a8   0x080229a8   0x000000c9   Data   RO         1274    .conststring        loslib.o
    0x08022a71   0x08022a71   0x00000003   PAD
    0x08022a74   0x08022a74   0x0000007f   Data   RO         1371    .conststring        lstrlib.o
    0x08022af3   0x08022af3   0x00000001   PAD
    0x08022af4   0x08022af4   0x0000001d   Data   RO         1406    .conststring        ltablib.o
    0x08022b11   0x08022b11   0x00000003   PAD
    0x08022b14   0x08022b14   0x000000eb   Data   RO         1421    .conststring        ltm.o
    0x08022bff   0x08022bff   0x00000001   PAD
    0x08022c00   0x08022c00   0x00000026   Data   RO         1452    .conststring        lutf8lib.o
    0x08022c26   0x08022c26   0x00000002   PAD
    0x08022c28   0x08022c28   0x00000057   Data   RO         1841    .conststring        lua_call.o
    0x08022c7f   0x08022c7f   0x00000001   PAD
    0x08022c80   0x08022c80   0x00000002   Data   RO         2976    .conststring        mc_w.l(ilconv.o)
    0x08022c82   0x08022c82   0x00000002   PAD
    0x08022c84   0x08022c84   0x00000020   Data   RO         3099    Region$$Table       anon$$obj.o
    0x08022ca4   0x08022ca4   0x00000004   Data   RO          216    .init_array         hardwareserial.o
    0x08022ca8   0x08022ca4   0x00000004   Data   RO          532    .init_array         wire.o
    0x08022cac   0x08022ca4   0x00000004   Data   RO          607    .init_array         spi.o
    0x08022cb0   0x08022ca4   0x00000000   Data   RO         2842    .init_array         mc_w.l(cpp_init.o)


    Execution Region RW_IRAM1 (Exec base: 0x20000000, Load base: 0x08022cb0, Size: 0x00009368, Max: 0x00010000, ABSOLUTE)

    Exec Addr    Load Addr    Size         Type   Attr      Idx    E Section Name        Object

    0x20000000   0x08022cb0   0x00000001   Data   RW          467    .data               wstring.o
    0x20000001   0x08022cb1   0x00000003   PAD
    0x20000004   0x08022cb4   0x00000004   Data   RW         1523    .data               delay.o
    0x20000008   0x08022cb8   0x00000040   Data   RW         1558    .data               exti.o
    0x20000048   0x08022cf8   0x00000018   Data   RW         1679    .data               usart.o
    0x20000060   0x08022d10   0x00000020   Data   RW         1709    .data               time_exti.o
    0x20000080   0x08022d30   0x00000001   Data   RW         1741    .data               main.o
    0x20000081   0x08022d31   0x00000014   Data   RW         2010    .data               stm32f10x_rcc.o
    0x20000095   0x08022d45   0x00000003   PAD
    0x20000098   0x08022d48   0x00000014   Data   RW         2115    .data               system_stm32f10x.o
    0x200000ac   0x08022d5c   0x00000003   Data   RW         2399    .data               mc_w.l(fgetc_u.o)
    0x200000af   0x08022d5f   0x00000001   PAD
    0x200000b0   0x08022d60   0x00000004   Data   RW         2442    .data               mc_w.l(stdin.o)
    0x200000b4   0x08022d64   0x00000004   Data   RW         2443    .data               mc_w.l(stdout.o)
    0x200000b8   0x08022d68   0x00000004   Data   RW         2444    .data               mc_w.l(stderr.o)
    0x200000bc   0x08022d6c   0x00000004   Data   RW         2480    .data               mc_w.l(rand.o)
    0x200000c0   0x08022d70   0x00000004   Data   RW         2835    .data               mc_w.l(errno.o)
    0x200000c4   0x08022d74   0x00000004   Data   RW         2983    .data               mc_w.l(mvars.o)
    0x200000c8   0x08022d78   0x00000004   Data   RW         2984    .data               mc_w.l(mvars.o)
    0x200000cc   0x08022d7c   0x00000004   Data   RW         2994    .data               mc_w.l(cpp_dtor.o)
    0x200000d0   0x08022d80   0x0000000c   Data   RW         3072    .data               mc_w.l(cpp_memory.o)
    0x200000dc        -       0x00000048   Zero   RW          215    .bss                hardwareserial.o
    0x20000124        -       0x00000058   Zero   RW          531    .bss                wire.o
    0x2000017c        -       0x00000030   Zero   RW          606    .bss                spi.o
    0x200001ac        -       0x00000010   Zero   RW         1624    .bss                adc.o
    0x200001bc        -       0x00000180   Zero   RW         1678    .bss                usart.o
    0x2000033c        -       0x0000002c   Zero   RW         2978    .bss                mc_w.l(localtime_w.o)
    0x20000368        -       0x00008000   Zero   RW         2105    HEAP                startup_stm32f10x_hd.o
    0x20008368        -       0x00001000   Zero   RW         2104    STACK               startup_stm32f10x_hd.o


==============================================================================

Image component sizes


      Code (inc. data)   RO Data    RW Data    ZI Data      Debug   Object Name

       704         24          0          0         16       2296   adc.o
       800          8          0          0          0     287884   arduino.o
       148         10          0          4          0       1321   delay.o
        64         14          0          0          0        690   dtostrf.o
       592         12          0         64          0       2779   exti.o
       336         32       1792          0          0       3538   gpio.o
       388         50         76          0         72     237185   hardwareserial.o
       290          0          0          0          0       2431   itoa.o
      5926         74        136          0          0      50757   lapi.o
      5372        930          0          0          0      27805   lauxlib.o
      2700        412        573          0          0       9215   lbaselib.o
         0          0          0          0          0       7716   lbitlib.o
      4836        246          0          0          0      47520   lcode.o
       836        162        123          0          0      10768   lcorolib.o
         0          0        257          0          0       2910   lctype.o
      2712        402        356          0          0       8684   ldblib.o
      3332        398          0          0          0      34940   ldebug.o
      3464        320          0          0          0      34602   ldo.o
       952         30          0          0          0      21898   ldump.o
       588          0          0          0          0       3325   lfunc.o
      4604         64          0          0          0      36268   lgc.o
        44          4        147          0          0       1100   linit.o
      3564        488        371          0          0      14197   liolib.o
      4428        422        364          0          0      30328   llex.o
      1832        172        400          0          0       6555   lmathlib.o
       292         68          0          0          0       1434   lmem.o
      2848        568        398          0          0       9286   loadlib.o
      2232        174        264          0          0      25240   lobject.o
         0          0        590          0          0        748   lopcodes.o
      1832        346        373          0          0      14034   loslib.o
      8578        678         42          0          0      32766   lparser.o
      1040         10          0          0          0       6464   lstate.o
      1008         28          0          0          0       5286   lstring.o
      8844       1202        275          0          0      24021   lstrlib.o
      2704         96         20          0          0      11613   ltable.o
      2220        308         93          0          0       6572   ltablib.o
       688         74        387          0          0       4855   ltm.o
      1792        534         87          0          0       9484   lua_call.o
      1732        270          0          0          0       5838   lundump.o
      1316        258        110          0          0       4647   lutf8lib.o
     11430        446          0          0          0      44576   lvm.o
       158          0          0          0          0       1776   lzio.o
       708        220          0          1          0      13429   main.o
       220         22          0          0          0       1925   misc.o
      1484         38         20          0          0      26012   print.o
       524         26          0          0          0       2579   pwm.o
       976         30          4          0         48       8812   spi.o
        36          8        304          0      36864        784   startup_stm32f10x_hd.o
      1102         26          0          0          0      11165   stm32f10x_adc.o
       596          8          0          0          0       4490   stm32f10x_dma.o
       284         10          0          0          0       2383   stm32f10x_exti.o
       860         38          0          0          0       5861   stm32f10x_gpio.o
       932         36          0         20          0       9024   stm32f10x_rcc.o
       780         14          0          0          0       6738   stm32f10x_spi.o
      3610         88          0          0          0      22968   stm32f10x_tim.o
      1032         22          0          0          0       8580   stm32f10x_usart.o
      1182         12          0          0          0      19148   stream.o
       480         38          0         20          0       1791   system_stm32f10x.o
       768         74          0         32          0       3198   time_exti.o
       604         46          0         24        384       2780   usart.o
       684         18         20          0         88       5907   wire.o
         0          0         16          0          0          0   wirebase.o
      3302          8          0          1          0      30570   wstring.o

    ----------------------------------------------------------------------
    117404      10116       7656        172      37472    1283496   Object Totals
         0          0         32          0          0          0   (incl. Generated)
        14          0         26          6          0          0   (incl. Padding)

    ----------------------------------------------------------------------

      Code (inc. data)   RO Data    RW Data    ZI Data      Debug   Library Member Name

        80         12          0          0          0        104   arm_exceptions_globs.o
        60          0          0          0          0        108   arm_exceptions_mem.o
        26          0          0          0          0         76   arm_exceptions_terminate.o
         4          0          0          0          0         68   arm_newhandler_noexceptions.o
         8          0          0          0          0         76   array_del.o
         8          0          0          0          0         76   array_new.o
         8          0          0          0          0         76   delete.o
        40          6          0          0          0         76   new.o
         6          0          0          0          0         68   pure_virt.o
       284         42          0          0          0        120   acosf.o
       292         38          0          0          0        120   asinf.o
       604         76          0          0          0        116   atan2f.o
        42          0          0          0          0         84   atof.o
       120         10          0          0          0         84   ceilf.o
       380         52          0          0          0        124   cosf.o
        32          0          0          0          0         88   difftime.o
       368         46         48          0          0        156   expf.o
       124         12          0          0          0         84   floorf.o
       108          0          0          0          0         96   fmodf.o
        38          0          0          0          0         68   fpclassifyf.o
        88          8          0          0          0         76   frexp.o
        70          0          0          0          0         76   frexpf.o
        48          0          0          0          0        408   funder.o
       436         52         64          0          0        132   log10f.o
       408         46         64          0          0        132   log2f.o
       400         38         64          0          0        132   logf.o
       204          4          0          0          0        168   narrow.o
      1568         80        320          0          0        224   powf.o
       360         16         32          0          0         88   rredf.o
       392         54          0          0          0        124   sinf.o
        44          0          0          0          0         80   sqrtf.o
        20          0          0          0          0         76   strtof.o
       372         58          0          0          0        124   tanf.o
        28          0          0          0          0         68   _chval.o
        64          0          0          0          0         84   _sgetc.o
       158          0          0          0          0         92   _strtoul.o
        46          0          0          0          0         84   aeabi_atexit.o
        26          0          0          0          0         80   atol.o
         8          4          0          4          0         68   cpp_dtor.o
         2          0          0          0          0         68   cpp_final.o
        32         10          0          0          0         80   cpp_init.o
        20          4          0         12          0        136   cpp_memory.o
         2          0          0          0          0         68   cpp_signal.o
         8          4        133          0          0         68   ctype_o.o
        66          0          0          0          0         84   cxa_finalize.o
         0          0          0          0          0          0   entry.o
         0          0          0          0          0          0   entry10a.o
         4          0          0          0          0          0   entry10b.o
         0          0          0          0          0          0   entry11a.o
         8          4          0          0          0          0   entry2.o
         4          0          0          0          0          0   entry5.o
         0          0          0          0          0          0   entry7b.o
         4          0          0          0          0          0   entry8a.o
         0          0          0          0          0          0   entry8b.o
         8          4          0          0          0          0   entry9a.o
        32         16          0          4          0        204   errno.o
        56          6          0          3          0        136   fgetc_u.o
        60          0          0          0          0         84   fgets.o
        18          0          0          0          0         80   fputc.o
        52          0          0          0          0         88   fread.o
        36          0          0          0          0         84   fwrite.o
         4          0          0          0          0         68   getc.o
        30          0          0          0          0          0   handlers.o
         0          0         58          0          0          0   ilconv.o
        36          8          0          0          0         68   init.o
         0          0          0          0          0          0   iusefp.o
         0          0          0          0          0          0   iusesemig.o
         0          0          0          0          0          0   iusesemip.o
        30          0          0          0          0         68   llshl.o
        36          0          0          0          0         68   llsshr.o
        32          0          0          0          0         68   llushr.o
         8          4          0          0          0         68   localeconv.o
       140          6         12          0          0         76   localtime_i.o
        12          6          0          0         44         68   localtime_w.o
       360         30          0          0          0        356   mallocr.o
        20          0          0          0          0         68   memchr.o
        26          0          0          0          0         80   memcmp.o
        64          0          0          0          0         76   memmovea.o
       168         18         12          0          0         80   mktime.o
         0          0          0          8          0          0   mvars.o
      2410        102          0          0          0        836   printfa.o
        36         10          0          4          0        136   rand.o
       878         12          0          0          0        216   scanf_fp.o
         0          0          0          0          0          0   semi.o
         0          0          0          4          0          0   stderr.o
         0          0          0          4          0          0   stdin.o
         0          0          0          4          0          0   stdout.o
        20          0          0          0          0         68   strchr.o
        28          0          0          0          0         76   strcmp.o
         4          0          0          0          0         68   strcoll.o
        18          0          0          0          0         68   strcpy.o
       228        196          0          0          0         68   strerror.o
       916        264         86          0          0        144   strftime.o
        14          0          0          0          0         68   strlen.o
        30          0          0          0          0         80   strncmp.o
        24          0          0          0          0         76   strncpy.o
        32          0          0          0          0         76   strpbrk.o
        32          0          0          0          0         68   strrchr.o
        28          0          0          0          0         80   strspn.o
        36          0          0          0          0         80   strstr.o
       156         12          0          0          0        120   strtod.o
        26          0          0          0          0         80   strtof.o
       112          0          0          0          0         88   strtol.o
        12          0          0          0          0         68   tolower.o
        12          0          0          0          0         68   toupper.o
        44          0          0          0          0         80   uidiv.o
        98          0          0          0          0         92   uldiv.o
        48          0          0          0          0         68   cdcmple.o
        48          0          0          0          0         68   cdrcmple.o
        20          0          0          0          0         68   cfcmple.o
        20          0          0          0          0         68   cfrcmple.o
        56          0          0          0          0         88   d2f.o
       334          0          0          0          0        148   dadd.o
       222          0          0          0          0        100   ddiv.o
       186          0          0          0          0        176   depilogue.o
        62          0          0          0          0         80   dfixi.o
        74          0          0          0          0         80   dfixl.o
        48          0          0          0          0         68   dfixul.o
        34          0          0          0          0         76   dflti.o
        40          0          0          0          0         80   dfltl.o
        26          0          0          0          0         76   dfltui.o
        24          0          0          0          0         76   dfltul.o
       228          0          0          0          0         96   dmul.o
        46          0          0          0          0         80   dscalb.o
        38          0          0          0          0         68   f2d.o
       176          0          0          0          0        140   fadd.o
       124          0          0          0          0         88   fdiv.o
       110          0          0          0          0        168   fepilogue.o
        50          0          0          0          0         68   ffixi.o
        76          0          0          0          0         76   ffixir.o
        40          0          0          0          0         68   ffixui.o
        18          0          0          0          0         68   fflti.o
        10          0          0          0          0         68   ffltui.o
       100          0          0          0          0         76   fmul.o
         4          0          0          0          0         68   fpstat.o
        82          0          0          0          0         96   frem.o
        60          0          0          0          0         76   frnd.o
        24          0          0          0          0         68   fscalb.o
        94          0          0          0          0         96   fsqrt.o
        62          0          0          0          0         96   setjmp.o

    ----------------------------------------------------------------------
     16552       1370        900         48         44      12264   Library Totals
        24          0          7          1          0          0   (incl. Padding)

    ----------------------------------------------------------------------

      Code (inc. data)   RO Data    RW Data    ZI Data      Debug   Library Name

       240         18          0          0          0        728   cpprt_w.l
      6802        632        592          0          0       2980   m_ws.l
      6902        720        301         47         44       5672   mc_w.l
      2584          0          0          0          0       2884   mf_w.l

    ----------------------------------------------------------------------
     16552       1370        900         48         44      12264   Library Totals

    ----------------------------------------------------------------------

==============================================================================


      Code (inc. data)   RO Data    RW Data    ZI Data      Debug   

    133956      11486       8556        220      37516    1283276   Grand Totals
    133956      11486       8556        220      37516    1283276   ELF Image Totals
    133956      11486       8556        220          0          0   ROM Totals

==============================================================================

    Total RO  Size (Code + RO Data)               142512 ( 139.17kB)
    Total RW  Size (RW Data + ZI Data)             37736 (  36.85kB)
    Total ROM Size (Code + RO Data + RW Data)     142732 ( 139.39kB)

==============================================================================

